 CourseworkBase2018

 Timestamp is 5af0f8ba (Tue May  8 02:09:14 2018)

 Preferred load address is 00400000

 Start         Length     Name                   Class
 0001:00000000 00004050H .text$di                CODE
 0001:00004050 00022f10H .text$mn                CODE
 0001:00026f60 00002916H .text$x                 CODE
 0001:00029876 0000100cH .text$yd                CODE
 0002:00000000 00000104H .CRT$XCA                DATA
 0002:00000104 00000104H .CRT$XCAA               DATA
 0002:00000208 00000104H .CRT$XCL                DATA
 0002:0000030c 00000104H .CRT$XCZ                DATA
 0002:00000410 00000104H .CRT$XIA                DATA
 0002:00000514 00000104H .CRT$XIAA               DATA
 0002:00000618 00000104H .CRT$XIAC               DATA
 0002:0000071c 00000104H .CRT$XIZ                DATA
 0002:00000820 00000104H .CRT$XPA                DATA
 0002:00000924 00000104H .CRT$XPZ                DATA
 0002:00000a28 00000104H .CRT$XTA                DATA
 0002:00000b2c 00000104H .CRT$XTZ                DATA
 0002:00000c30 000014c4H .rdata                  DATA
 0002:000020f4 000010fcH .rdata$r                DATA
 0002:000031f0 000002e0H .rdata$sxdata           DATA
 0002:000034d0 000001a4H .rdata$zzzdbg           DATA
 0002:00003674 00000104H .rtc$IAA                DATA
 0002:00003778 00000104H .rtc$IZZ                DATA
 0002:0000387c 00000104H .rtc$TAA                DATA
 0002:00003980 00000108H .rtc$TZZ                DATA
 0002:00003a88 00001c0dH .xdata$x                DATA
 0002:00005695 00000000H .edata                  DATA
 0003:00000000 00000130H .data                   DATA
 0003:00000130 00000768H .data$r                 DATA
 0003:00000898 00000468H .bss                    DATA
 0004:00000000 000005fcH .idata$5                DATA
 0004:000005fc 00000140H .idata$2                DATA
 0004:0000073c 00000014H .idata$3                DATA
 0004:00000750 000005fcH .idata$4                DATA
 0004:00000d4c 000019deH .idata$6                DATA
 0005:00000000 00000104H .00cfg                  DATA
 0006:00000000 00000170H .rsrc$01                DATA
 0006:00000170 000002ccH .rsrc$02                DATA

  Address         Publics by Value              Rva+Base       Lib:Object

 0000:00000000       ___guard_iat_table         00000000     <absolute>
 0000:00000000       ___hybrid_auxiliary_iat    00000000     <absolute>
 0000:00000000       ___guard_longjmp_table     00000000     <absolute>
 0000:00000000       ___dynamic_value_reloc_table 00000000     <absolute>
 0000:00000000       ___enclave_config          00000000     <absolute>
 0000:00000000       ___hybrid_code_map         00000000     <absolute>
 0000:00000000       ___hybrid_code_map_count   00000000     <absolute>
 0000:00000000       ___guard_longjmp_count     00000000     <absolute>
 0000:00000000       ___guard_iat_count         00000000     <absolute>
 0000:00000000       ___guard_fids_table        00000000     <absolute>
 0000:00000000       ___guard_fids_count        00000000     <absolute>
 0000:00000064       ___safe_se_handler_count   00000064     <absolute>
 0000:00000100       ___guard_flags             00000100     <absolute>
 0000:00000000       ___ImageBase               00400000     <linker-defined>
 0001:00004050       ?GetWindowWidth@BaseEngine@@QBEHXZ 00405050 f i Boss.obj
 0001:00004070       ?_Large_string_engaged@?$_String_val@U?$_Simple_types@D@std@@@std@@QBE_NXZ 00405070 f i Boss.obj
 0001:000040b0       ?_Adjust_manually_vector_aligned@std@@YAXAAPAXAAI@Z 004050b0 f i Boss.obj
 0001:00004110       ?length@?$char_traits@D@std@@SAIQBD@Z 00405110 f i Boss.obj
 0001:00004130       ?_Getal@?$_String_alloc@U?$_String_base_types@DV?$allocator@D@std@@@std@@@std@@QBEABV?$allocator@D@2@XZ 00405130 f i Boss.obj
 0001:00004150       ?_Myptr@?$_String_val@U?$_Simple_types@D@std@@@std@@QAEPADXZ 00405150 f i Boss.obj
 0001:00004190       ?_Orphan_all@?$_String_alloc@U?$_String_base_types@DV?$allocator@D@std@@@std@@@std@@QAEXXZ 00405190 f i Boss.obj
 0001:000041b0       ?_Tidy_init@?$basic_string@DU?$char_traits@D@std@@V?$allocator@D@2@@std@@QAEXXZ 004051b0 f i Boss.obj
 0001:00004200       ?assign@?$basic_string@DU?$char_traits@D@std@@V?$allocator@D@2@@std@@QAEAAV12@QBD@Z 00405200 f i Boss.obj
 0001:00004240       ?_Orphan_all@_Container_base0@std@@QAEXXZ 00405240 f i Boss.obj
 0001:00004250       ?move@?$char_traits@D@std@@SAPADQADQBDI@Z 00405250 f i Boss.obj
 0001:00004290       ?deallocate@?$allocator@D@std@@QAEXQADI@Z 00405290 f i Boss.obj
 0001:000042b0       ?GetForeground@BaseEngine@@QAEPAUSDL_Surface@@XZ 004052b0 f i Creature.obj
 0001:000042d0       ?_Get_second@?$_Compressed_pair@V?$allocator@PAVCreature@@@std@@V?$_Vector_val@U?$_Simple_types@PAVCreature@@@std@@@2@$00@std@@QBEABV?$_Vector_val@U?$_Simple_types@PAVCreature@@@std@@@2@XZ 004052d0 f i Creature.obj
 0001:000042e0       ?copy@?$char_traits@D@std@@SAPADQADQBDI@Z 004052e0 f i Boss.obj
 0001:00004350       ??$?0$$V@?$_Compressed_pair@V?$allocator@D@std@@V?$_String_val@U?$_Simple_types@D@std@@@2@$00@std@@QAE@U_Zero_then_variadic_args_t@1@@Z 00405350 f i Boss.obj
 0001:00004380       ??$?0HH$0A@@?$pair@HH@std@@QAE@$$QAH0@Z 00405380 f i Boss.obj
 0001:000043d0       ??$_Allocate@$07U_Default_allocate_traits@std@@$0A@@std@@YAPAXI@Z 004053d0 f i Boss.obj
 0001:00004410       ??$_Allocate_manually_vector_aligned@U_Default_allocate_traits@std@@@std@@YAPAXI@Z 00405410 f i Boss.obj
 0001:00004470       ?max_size@?$_Default_allocator_traits@V?$allocator@D@std@@@std@@SAIABV?$allocator@D@2@@Z 00405470 f i Boss.obj
 0001:00004490       ??$_Convert_size@I@std@@YAII@Z 00405490 f i Boss.obj
 0001:000044a0       ??$_Deallocate@$07$0A@@std@@YAXPAXI@Z 004054a0 f i Boss.obj
 0001:000044e0       ??$_Get_size_of_n@$00@std@@YAII@Z 004054e0 f i Boss.obj
 0001:000044f0       ??$_Max_value@I@std@@YAABIABI0@Z 004054f0 f i Boss.obj
 0001:00004530       ??$_Min_value@I@std@@YAABIABI0@Z 00405530 f i Boss.obj
 0001:00004650       ??$hypot@IHX@@YANIH@Z      00405650 f i Creature.obj
 0001:00004690       ??$_Unfancy@D@std@@YAPADPAD@Z 00405690 f i Boss.obj
 0001:000046a0       ??$addressof@PAD@std@@YAPAPADAAPAD@Z 004056a0 f i Boss.obj
 0001:000046b0       ??$construct@PADABQAD@?$_Default_allocator_traits@V?$allocator@D@std@@@std@@SAXAAV?$allocator@D@1@QAPADABQAD@Z 004056b0 f i Boss.obj
 0001:000046f0       ??$destroy@PAD@?$_Default_allocator_traits@V?$allocator@D@std@@@std@@SAXAAV?$allocator@D@1@QAPAD@Z 004056f0 f i Boss.obj
 0001:00004700       ??$forward@ABQAD@std@@YAABQADABQAD@Z 00405700 f i Boss.obj
 0001:00004710       ??$forward@H@std@@YA$$QAHAAH@Z 00405710 f i Boss.obj
 0001:00004720       ??$hypot@HHX@@YANHH@Z      00405720 f i Boss.obj
 0001:00004760       ??0?$_String_alloc@U?$_String_base_types@DV?$allocator@D@std@@@std@@@std@@QAE@XZ 00405760 f i Boss.obj
 0001:00004790       ??0?$_String_val@U?$_Simple_types@D@std@@@std@@QAE@XZ 00405790 f i Boss.obj
 0001:000047d0       ??0?$allocator@D@std@@QAE@XZ 004057d0 f i Boss.obj
 0001:000047f0       ??0?$basic_string@DU?$char_traits@D@std@@V?$allocator@D@2@@std@@QAE@QBD@Z 004057f0 f i Boss.obj
 0001:00004870       ??0_Bxty@?$_String_val@U?$_Simple_types@D@std@@@std@@QAE@XZ 00405870 f i Boss.obj
 0001:00004890       ??1?$_Compressed_pair@V?$allocator@D@std@@V?$_String_val@U?$_Simple_types@D@std@@@2@$00@std@@QAE@XZ 00405890 f i Boss.obj
 0001:000048b0       ??1?$_String_alloc@U?$_String_base_types@DV?$allocator@D@std@@@std@@@std@@QAE@XZ 004058b0 f i Boss.obj
 0001:000048d0       ??1?$_String_val@U?$_Simple_types@D@std@@@std@@QAE@XZ 004058d0 f i Boss.obj
 0001:000048f0       ??1?$basic_string@DU?$char_traits@D@std@@V?$allocator@D@2@@std@@QAE@XZ 004058f0 f i Boss.obj
 0001:00004950       ??1Boss@@UAE@XZ            00405950 f i Boss.obj
 0001:00004970       ??1Creature@@UAE@XZ        00405970 f i Boss.obj
 0001:000049a0       ??1ImageData@@QAE@XZ       004059a0 f i Boss.obj
 0001:000049e0       ??1Sprite@@QAE@XZ          004059e0 f i Boss.obj
 0001:00004a50       ??1_Bxty@?$_String_val@U?$_Simple_types@D@std@@@std@@QAE@XZ 00405a50 f i Boss.obj
 0001:00004a60       ??2@YAPAXIPAX@Z            00405a60 f i Boss.obj
 0001:00004ac0       ??_EBoss@@UAEPAXI@Z        00405ac0 f i Boss.obj
 0001:00004ac0       ??_GBoss@@UAEPAXI@Z        00405ac0 f i Boss.obj
 0001:00004b00       ?DrawForegroundString@BaseEngine@@QAEXHHPBDIPAVFont@@@Z 00405b00 f i Boss.obj
 0001:00004b40       ?GetHeight@ImageData@@QBEHXZ 00405b40 f i Boss.obj
 0001:00004b70       ?allocate@?$allocator@D@std@@QAEPADI@Z 00405b70 f i Boss.obj
 0001:00004ba0       ?intersects@utility@@YA_NABU?$pair@U?$pair@HH@std@@U12@@std@@0@Z 00405ba0 f i Boss.obj
 0001:00004c00       ?Notify@DisplayableObject@@UAEJH@Z 00405c00 f i Boss.obj
 0001:00004c30       ?max@?$numeric_limits@H@std@@SAHXZ 00405c30 f i Boss.obj
 0001:00004c90       ?IsLoaded@ImageData@@QBE_NXZ 00405c90 f i Creature.obj
 0001:00004cc0       ?_Allocate@_Default_allocate_traits@std@@SAPAXI@Z 00405cc0 f i Boss.obj
 0001:00004d00       ?_Get_data@?$_String_alloc@U?$_String_base_types@DV?$allocator@D@std@@@std@@@std@@QAEAAV?$_String_val@U?$_Simple_types@D@std@@@2@XZ 00405d00 f i Boss.obj
 0001:00004d20       ?_Get_data@?$_String_alloc@U?$_String_base_types@DV?$allocator@D@std@@@std@@@std@@QBEABV?$_String_val@U?$_Simple_types@D@std@@@2@XZ 00405d20 f i Boss.obj
 0001:00004d40       ?_Get_first@?$_Compressed_pair@V?$allocator@D@std@@V?$_String_val@U?$_Simple_types@D@std@@@2@$00@std@@QAEAAV?$allocator@D@2@XZ 00405d40 f i Boss.obj
 0001:00004d60       ?_Get_first@?$_Compressed_pair@V?$allocator@D@std@@V?$_String_val@U?$_Simple_types@D@std@@@2@$00@std@@QBEABV?$allocator@D@2@XZ 00405d60 f i Boss.obj
 0001:00004d80       ?_Get_second@?$_Compressed_pair@V?$allocator@D@std@@V?$_String_val@U?$_Simple_types@D@std@@@2@$00@std@@QAEAAV?$_String_val@U?$_Simple_types@D@std@@@2@XZ 00405d80 f i Boss.obj
 0001:00004da0       ?_Get_second@?$_Compressed_pair@V?$allocator@D@std@@V?$_String_val@U?$_Simple_types@D@std@@@2@$00@std@@QBEABV?$_String_val@U?$_Simple_types@D@std@@@2@XZ 00405da0 f i Boss.obj
 0001:00004dc0       ?RedrawWholeScreen@DisplayableObject@@QAEXXZ 00405dc0 f i Creature.obj
 0001:00004de0       ?_Getal@?$_String_alloc@U?$_String_base_types@DV?$allocator@D@std@@@std@@@std@@QAEAAV?$allocator@D@2@XZ 00405de0 f i Boss.obj
 0001:00004e10       ??4?$pair@_NU?$pair@HH@std@@@std@@QAEAAU01@$$QAU01@@Z 00405e10 f i Creature.obj
 0001:00004e70       ?_Lrotate@?$_Tree@V?$_Tmap_traits@U?$pair@HH@std@@_NU?$less@U?$pair@HH@std@@@2@V?$allocator@U?$pair@$$CBU?$pair@HH@std@@_N@std@@@2@$0A@@std@@@std@@IAEXPAU?$_Tree_node@U?$pair@$$CBU?$pair@HH@std@@_N@std@@PAX@2@@Z 00405e70 f i mainfunction.obj
 0001:00004f10       ?_Rrotate@?$_Tree@V?$_Tmap_traits@U?$pair@HH@std@@_NU?$less@U?$pair@HH@std@@@2@V?$allocator@U?$pair@$$CBU?$pair@HH@std@@_N@std@@@2@$0A@@std@@@std@@IAEXPAU?$_Tree_node@U?$pair@$$CBU?$pair@HH@std@@_N@std@@PAX@2@@Z 00405f10 f i mainfunction.obj
 0001:00004fc0       ?_Get_data@?$_Vector_alloc@U?$_Vec_base_types@PAVCreature@@V?$allocator@PAVCreature@@@std@@@std@@@std@@QBEABV?$_Vector_val@U?$_Simple_types@PAVCreature@@@std@@@2@XZ 00405fc0 f i Creature.obj
 0001:00005020       ?_Xlen@?$basic_string@DU?$char_traits@D@std@@V?$allocator@D@2@@std@@SAXXZ 00406020 f i Boss.obj
 0001:00005050       ?_Tidy@?$_Tree@V?$_Tmap_traits@U?$pair@HH@std@@_NU?$less@U?$pair@HH@std@@@2@V?$allocator@U?$pair@$$CBU?$pair@HH@std@@_N@std@@@2@$0A@@std@@@std@@IAEXXZ 00406050 f i mainfunction.obj
 0001:000050a0       ?UpdateMouseInfo@BaseEngine@@QAEXXZ 004060a0 f i Cursor.obj
 0001:000050d0       ?_Myfirst@?$_Vector_alloc@U?$_Vec_base_types@PAVCreature@@V?$allocator@PAVCreature@@@std@@@std@@@std@@QBEABQAPAVCreature@@XZ 004060d0 f i Creature.obj
 0001:00005140       ?assign@?$char_traits@D@std@@SAXAADABD@Z 00406140 f i Boss.obj
 0001:00005160       ?_Mylast@?$_Vector_alloc@U?$_Vec_base_types@PAVCreature@@V?$allocator@PAVCreature@@@std@@@std@@@std@@QBEABQAPAVCreature@@XZ 00406160 f i Creature.obj
 0001:00005190       ?_Tidy@?$vector@PAVCreature@@V?$allocator@PAVCreature@@@std@@@std@@AAEXXZ 00406190 f i mainfunction.obj
 0001:00005220       ??0ControlledObject@@QAE@PAVBaseEngine@@@Z 00406220 f   ControlledObject.obj
 0001:000052e0       ?Draw@ControlledObject@@UAEXXZ 004062e0 f   ControlledObject.obj
 0001:000054f0       ?DoUpdate@ControlledObject@@UAEXH@Z 004064f0 f   ControlledObject.obj
 0001:00005610       ?IsMovingUp@ControlledObject@@QBE_NXZ 00406610 f   ControlledObject.obj
 0001:00005630       ?IsMovingDown@ControlledObject@@QBE_NXZ 00406630 f   ControlledObject.obj
 0001:00005650       ?IsMovingRight@ControlledObject@@QBE_NXZ 00406650 f   ControlledObject.obj
 0001:00005670       ?IsMovingLeft@ControlledObject@@QBE_NXZ 00406670 f   ControlledObject.obj
 0001:00005690       ?IsMoving@ControlledObject@@QBE_NXZ 00406690 f   ControlledObject.obj
 0001:000056f0       ?erase@?$_Tree@V?$_Tmap_traits@U?$pair@HH@std@@_NU?$less@U?$pair@HH@std@@@2@V?$allocator@U?$pair@$$CBU?$pair@HH@std@@_N@std@@@2@$0A@@std@@@std@@QAE?AV?$_Tree_iterator@V?$_Tree_val@U?$_Tree_simple_types@U?$pair@$$CBU?$pair@HH@std@@_N@std@@@std@@@std@@@2@V?$_Tree_const_iterator@V?$_Tree_val@U?$_Tree_simple_types@U?$pair@$$CBU?$pair@HH@std@@_N@std@@@std@@@std@@@2@0@Z 004066f0 f i mainfunction.obj
 0001:000057b0       ?_Unchecked_begin@?$vector@PAVCreature@@V?$allocator@PAVCreature@@@std@@@std@@QBEPBQAVCreature@@XZ 004067b0 f i Creature.obj
 0001:000057d0       ?_Unchecked_end@?$vector@PAVCreature@@V?$allocator@PAVCreature@@@std@@@std@@QBEPBQAVCreature@@XZ 004067d0 f i Creature.obj
 0001:000057f0       ?GetWindowHeight@BaseEngine@@QBEHXZ 004067f0 f i Boss.obj
 0001:00005820       ??$?0ABV?$allocator@D@std@@$$V@?$_Compressed_pair@V?$allocator@D@std@@V?$_String_val@U?$_Simple_types@D@std@@@2@$00@std@@QAE@U_One_then_variadic_args_t@1@ABV?$allocator@D@1@@Z 00406820 f i ControlledObject.obj
 0001:00005850       ??$?0ABV?$allocator@D@std@@X@?$_String_alloc@U?$_String_base_types@DV?$allocator@D@std@@@std@@@std@@QAE@ABV?$allocator@D@1@@Z 00406850 f i ControlledObject.obj
 0001:00005890       ??$?0PADX@?$basic_string@DU?$char_traits@D@std@@V?$allocator@D@2@@std@@QAE@PAD0ABV?$allocator@D@1@@Z 00406890 f i ControlledObject.obj
 0001:00005940       ??$?0V?$allocator@D@std@@$$V@?$_Compressed_pair@V?$allocator@D@std@@V?$_String_val@U?$_Simple_types@D@std@@@2@$00@std@@QAE@U_One_then_variadic_args_t@1@$$QAV?$allocator@D@1@@Z 00406940 f i ControlledObject.obj
 0001:00005970       ??$?0V?$allocator@D@std@@X@?$_String_alloc@U?$_String_base_types@DV?$allocator@D@std@@@std@@@std@@QAE@$$QAV?$allocator@D@1@@Z 00406970 f i ControlledObject.obj
 0001:000059b0       ??$?HDU?$char_traits@D@std@@V?$allocator@D@1@@std@@YA?AV?$basic_string@DU?$char_traits@D@std@@V?$allocator@D@2@@0@$$QAV10@0@Z 004069b0 f i ControlledObject.obj
 0001:00005a90       ??$_Integral_to_string@DH@std@@YA?AV?$basic_string@DU?$char_traits@D@std@@V?$allocator@D@2@@0@H@Z 00406a90 f i ControlledObject.obj
 0001:00005f80       ??$_UIntegral_to_buff@DI@std@@YAPADPADI@Z 00406f80 f i ControlledObject.obj
 0001:00006070       ??$_Unchecked@PAD@std@@YAPADPAD@Z 00407070 f i ControlledObject.obj
 0001:00006080       ??$addressof@V?$_String_val@U?$_Simple_types@D@std@@@std@@@std@@YAPAV?$_String_val@U?$_Simple_types@D@std@@@0@AAV10@@Z 00407080 f i ControlledObject.obj
 0001:00006090       ??$end@D$0BF@@std@@YAPADAAY0BF@D@Z 00407090 f i ControlledObject.obj
 0001:000060a0       ??$forward@ABV?$allocator@D@std@@@std@@YAABV?$allocator@D@0@ABV10@@Z 004070a0 f i ControlledObject.obj
 0001:000060b0       ??$forward@V?$allocator@D@std@@@std@@YA$$QAV?$allocator@D@0@AAV10@@Z 004070b0 f i ControlledObject.obj
 0001:000060c0       ??$move@AAV?$allocator@D@std@@@std@@YA$$QAV?$allocator@D@0@AAV10@@Z 004070c0 f i ControlledObject.obj
 0001:000060d0       ??$move@AAV?$basic_string@DU?$char_traits@D@std@@V?$allocator@D@2@@std@@@std@@YA$$QAV?$basic_string@DU?$char_traits@D@std@@V?$allocator@D@2@@0@AAV10@@Z 004070d0 f i ControlledObject.obj
 0001:000060e0       ??0?$basic_string@DU?$char_traits@D@std@@V?$allocator@D@2@@std@@QAE@$$QAV01@@Z 004070e0 f i ControlledObject.obj
 0001:00006180       ??0?$basic_string@DU?$char_traits@D@std@@V?$allocator@D@2@@std@@QAE@QBDI@Z 00407180 f i ControlledObject.obj
 0001:00006210       ??1ControlledObject@@UAE@XZ 00407210 f i ControlledObject.obj
 0001:00006370       ??_GControlledObject@@UAEPAXI@Z 00407370 f i ControlledObject.obj
 0001:00006370       ??_EControlledObject@@UAEPAXI@Z 00407370 f i ControlledObject.obj
 0001:000063b0       ??__Ks@string_literals@literals@std@@YA?AV?$basic_string@DU?$char_traits@D@std@@V?$allocator@D@2@@3@PBDI@Z 004073b0 f i ControlledObject.obj
 0001:000063f0       ?DrawForegroundRectangle@BaseEngine@@QAEXHHHHI@Z 004073f0 f i ControlledObject.obj
 0001:00006430       ?GetEngine@DisplayableObject@@QBEPAVBaseEngine@@XZ 00407430 f i ControlledObject.obj
 0001:00006450       ?Redraw@BaseEngine@@QAEX_N@Z 00407450 f i ControlledObject.obj
 0001:00006480       ?RedrawObjects@DisplayableObject@@QAEXXZ 00407480 f i ControlledObject.obj
 0001:000064a0       ?SetVisible@DisplayableObject@@QAEX_N@Z 004074a0 f i ControlledObject.obj
 0001:000064c0       ?_Assign_rv_contents_with_alloc_always_equal@?$basic_string@DU?$char_traits@D@std@@V?$allocator@D@2@@std@@QAEX$$QAV12@U?$integral_constant@_N$00@2@@Z 004074c0 f i ControlledObject.obj
 0001:00006570       ?_Check_offset@?$_String_val@U?$_Simple_types@D@std@@@std@@QBEXI@Z 00407570 f i ControlledObject.obj
 0001:000065a0       ?_Construct@?$basic_string@DU?$char_traits@D@std@@V?$allocator@D@2@@std@@QAEXQAD0Urandom_access_iterator_tag@2@@Z 004075a0 f i ControlledObject.obj
 0001:000065e0       ?_Myptr@?$_String_val@U?$_Simple_types@D@std@@@std@@QBEPBDXZ 004075e0 f i ControlledObject.obj
 0001:00006630       ?_Xran@?$_String_val@U?$_Simple_types@D@std@@@std@@SAXXZ 00407630 f i ControlledObject.obj
 0001:00006650       ?append@?$basic_string@DU?$char_traits@D@std@@V?$allocator@D@2@@std@@QAEAAV12@ABV12@@Z 00407650 f i ControlledObject.obj
 0001:00006690       ?append@?$basic_string@DU?$char_traits@D@std@@V?$allocator@D@2@@std@@QAEAAV12@QBDI@Z 00407690 f i ControlledObject.obj
 0001:00006760       ?c_str@?$basic_string@DU?$char_traits@D@std@@V?$allocator@D@2@@std@@QBEPBDXZ 00407760 f i ControlledObject.obj
 0001:000067c0       ?capacity@?$basic_string@DU?$char_traits@D@std@@V?$allocator@D@2@@std@@QBEIXZ 004077c0 f i ControlledObject.obj
 0001:000067e0       ?insert@?$basic_string@DU?$char_traits@D@std@@V?$allocator@D@2@@std@@QAEAAV12@IABV12@@Z 004077e0 f i ControlledObject.obj
 0001:00006830       ?insert@?$basic_string@DU?$char_traits@D@std@@V?$allocator@D@2@@std@@QAEAAV12@IQBDI@Z 00407830 f i ControlledObject.obj
 0001:00006990       ?size@?$basic_string@DU?$char_traits@D@std@@V?$allocator@D@2@@std@@QBEIXZ 00407990 f i ControlledObject.obj
 0001:000069b0       ?to_string@std@@YA?AV?$basic_string@DU?$char_traits@D@std@@V?$allocator@D@2@@1@H@Z 004079b0 f i ControlledObject.obj
 0001:000069e0       ?erase@?$_Tree@V?$_Tmap_traits@U?$pair@HH@std@@_NU?$less@U?$pair@HH@std@@@2@V?$allocator@U?$pair@$$CBU?$pair@HH@std@@_N@std@@@2@$0A@@std@@@std@@QAE?AV?$_Tree_iterator@V?$_Tree_val@U?$_Tree_simple_types@U?$pair@$$CBU?$pair@HH@std@@_N@std@@@std@@@std@@@2@V?$_Tree_const_iterator@V?$_Tree_val@U?$_Tree_simple_types@U?$pair@$$CBU?$pair@HH@std@@_N@std@@@std@@@std@@@2@@Z 004079e0 f i mainfunction.obj
 0001:00006a70       ?_Calculate_growth@?$basic_string@DU?$char_traits@D@std@@V?$allocator@D@2@@std@@QBEII@Z 00407a70 f i Boss.obj
 0001:00006af0       ?_Tidy_deallocate@?$basic_string@DU?$char_traits@D@std@@V?$allocator@D@2@@std@@QAEXXZ 00407af0 f i Boss.obj
 0001:00006ba0       ?assign@?$basic_string@DU?$char_traits@D@std@@V?$allocator@D@2@@std@@QAEAAV12@QBDI@Z 00407ba0 f i Boss.obj
 0001:00006c30       ?max_size@?$basic_string@DU?$char_traits@D@std@@V?$allocator@D@2@@std@@QBEIXZ 00407c30 f i Boss.obj
 0001:000075c0       ??$?0HH$0A@@?$pair@HH@std@@QAE@ABH0@Z 004085c0 f i Creature.obj
 0001:000075f0       ??$?0U?$pair@HH@std@@U01@$0A@@?$pair@U?$pair@HH@std@@U12@@std@@QAE@ABU?$pair@HH@1@0@Z 004085f0 f i Creature.obj
 0001:00007630       ??$?0_NAAU?$pair@HH@std@@$0A@@?$pair@_NU?$pair@HH@std@@@std@@QAE@$$QA_NAAU?$pair@HH@1@@Z 00408630 f i Creature.obj
 0001:00007680       ??$?0_NU?$pair@HH@std@@$0A@@?$pair@_NU?$pair@HH@std@@@std@@QAE@AB_NABU?$pair@HH@1@@Z 00408680 f i Creature.obj
 0001:000076c0       ??$forward@AAU?$pair@HH@std@@@std@@YAAAU?$pair@HH@0@AAU10@@Z 004086c0 f i Creature.obj
 0001:000076d0       ??$forward@U?$pair@HH@std@@@std@@YA$$QAU?$pair@HH@0@AAU10@@Z 004086d0 f i Creature.obj
 0001:000076e0       ??$forward@_N@std@@YA$$QA_NAA_N@Z 004086e0 f i Creature.obj
 0001:000076f0       ??$hypot@HIX@@YANHI@Z      004086f0 f i Creature.obj
 0001:00007770       ??4?$pair@HH@std@@QAEAAU01@$$QAU01@@Z 00408770 f i Creature.obj
 0001:000077c0       ??4?$pair@HH@std@@QAEAAU01@ABU01@@Z 004087c0 f i Creature.obj
 0001:00007820       ??_ECreature@@UAEPAXI@Z    00408820 f i Creature.obj
 0001:00007820       ??_GCreature@@UAEPAXI@Z    00408820 f i Creature.obj
 0001:00007860       ?GetWidth@ImageData@@QBEHXZ 00408860 f i Creature.obj
 0001:00007890       ?GetXCentre@DisplayableObject@@QBEHXZ 00408890 f i Creature.obj
 0001:000078c0       ?GetYCentre@DisplayableObject@@QBEHXZ 004088c0 f i Creature.obj
 0001:00007990       ??0Cursor@@QAE@PAVBaseEngine@@@Z 00408990 f   Cursor.obj
 0001:00007ab0       ??1Cursor@@UAE@XZ          00408ab0 f   Cursor.obj
 0001:00007af0       ?Draw@Cursor@@UAEXXZ       00408af0 f   Cursor.obj
 0001:00007b50       ?DoUpdate@Cursor@@UAEXH@Z  00408b50 f   Cursor.obj
 0001:00007cd0       ?GetBoundingBox@Cursor@@QBE?AU?$pair@U?$pair@HH@std@@U12@@std@@XZ 00408cd0 f   Cursor.obj
 0001:00007d40       ?GetMousePosition@Cursor@@SA?AU?$pair@HH@std@@ABVBaseEngine@@@Z 00408d40 f   Cursor.obj
 0001:00007d80       ?MouseLeftClicked@Cursor@@SA_NABVBaseEngine@@@Z 00408d80 f   Cursor.obj
 0001:00007d90       ?MouseRightClicked@Cursor@@SA_NABVBaseEngine@@@Z 00408d90 f   Cursor.obj
 0001:00007dc0       ?IsSpecial@Cursor@@QBE_NXZ 00408dc0 f   Cursor.obj
 0001:00007e20       ?GetCursorImage@Cursor@@ABEABVImageData@@XZ 00408e20 f   Cursor.obj
 0001:00007f80       ??$?0ABHH$0A@@?$pair@HH@std@@QAE@ABH$$QAH@Z 00408f80 f i Cursor.obj
 0001:00007fd0       ??$?0HABH$0A@@?$pair@HH@std@@QAE@$$QAHABH@Z 00408fd0 f i Cursor.obj
 0001:00008020       ??$clamp@M@utility@@YAABMABM00@Z 00409020 f i Cursor.obj
 0001:00008070       ??$forward@ABH@std@@YAABHABH@Z 00409070 f i Cursor.obj
 0001:00008080       ??0ImageData@@QAE@XZ       00409080 f i Cursor.obj
 0001:000080c0       ??_ECursor@@UAEPAXI@Z      004090c0 f i Cursor.obj
 0001:000080c0       ??_GCursor@@UAEPAXI@Z      004090c0 f i Cursor.obj
 0001:00008100       ?GetCurrentButtonStates@BaseEngine@@QBEHXZ 00409100 f i Cursor.obj
 0001:00008120       ?GetCurrentMouseX@BaseEngine@@QBEHXZ 00409120 f i Cursor.obj
 0001:00008140       ?GetCurrentMouseY@BaseEngine@@QBEHXZ 00409140 f i Cursor.obj
 0001:00008730       ??1HealthBar@@UAE@XZ       00409730 f i HealthBar.obj
 0001:000087a0       ??_EHealthBar@@UAEPAXI@Z   004097a0 f i HealthBar.obj
 0001:000087a0       ??_GHealthBar@@UAEPAXI@Z   004097a0 f i HealthBar.obj
 0001:000087e0       ??0HUD@@QAE@PAVBaseEngine@@@Z 004097e0 f   HUD.obj
 0001:000088a0       ?Draw@HUD@@UAEXXZ          004098a0 f   HUD.obj
 0001:00008e30       ??$_Integral_to_string@DI@std@@YA?AV?$basic_string@DU?$char_traits@D@std@@V?$allocator@D@2@@0@I@Z 00409e30 f i HUD.obj
 0001:00009320       ??1HUD@@UAE@XZ             0040a320 f i HUD.obj
 0001:00009480       ??_GHUD@@UAEPAXI@Z         0040a480 f i HUD.obj
 0001:00009480       ??_EHUD@@UAEPAXI@Z         0040a480 f i HUD.obj
 0001:000094c0       ?to_string@std@@YA?AV?$basic_string@DU?$char_traits@D@std@@V?$allocator@D@2@@1@I@Z 0040a4c0 f i HUD.obj
 0001:00009500       _SDL_main                  0040a500 f   mainfunction.obj
 0001:000095c0       ??$_Destroy_range1@V?$allocator@PAVCreature@@@std@@@std@@YAXPAPAVCreature@@0AAV?$allocator@PAVCreature@@@0@U?$integral_constant@_N$00@0@@Z 0040a5c0 f i mainfunction.obj
 0001:000095d0       ??$_Destroy_range@V?$allocator@PAVCreature@@@std@@@std@@YAXPAPAVCreature@@0AAV?$allocator@PAVCreature@@@0@@Z 0040a5d0 f i mainfunction.obj
 0001:00009600       ??$_Freenode0@V?$allocator@U?$_Tree_node@U?$pair@$$CBU?$pair@HH@std@@_N@std@@PAX@std@@@std@@@?$_Tree_node@U?$pair@$$CBU?$pair@HH@std@@_N@std@@PAX@std@@SAXAAV?$allocator@U?$_Tree_node@U?$pair@$$CBU?$pair@HH@std@@_N@std@@PAX@std@@@1@PAU01@@Z 0040a600 f i mainfunction.obj
 0001:000096c0       ??$addressof@PAU?$_Tree_node@U?$pair@$$CBU?$pair@HH@std@@_N@std@@PAX@std@@@std@@YAPAPAU?$_Tree_node@U?$pair@$$CBU?$pair@HH@std@@_N@std@@PAX@0@AAPAU10@@Z 0040a6c0 f i mainfunction.obj
 0001:000096d0       ??$addressof@U?$pair@$$CBU?$pair@HH@std@@_N@std@@@std@@YAPAU?$pair@$$CBU?$pair@HH@std@@_N@0@AAU10@@Z 0040a6d0 f i mainfunction.obj
 0001:000096e0       ??$addressof@V?$_Tree_val@U?$_Tree_simple_types@U?$pair@$$CBU?$pair@HH@std@@_N@std@@@std@@@std@@@std@@YAPAV?$_Tree_val@U?$_Tree_simple_types@U?$pair@$$CBU?$pair@HH@std@@_N@std@@@std@@@0@AAV10@@Z 0040a6e0 f i mainfunction.obj
 0001:000096f0       ??$destroy@PAU?$_Tree_node@U?$pair@$$CBU?$pair@HH@std@@_N@std@@PAX@std@@@?$_Default_allocator_traits@V?$allocator@U?$_Tree_node@U?$pair@$$CBU?$pair@HH@std@@_N@std@@PAX@std@@@std@@@std@@SAXAAV?$allocator@U?$_Tree_node@U?$pair@$$CBU?$pair@HH@std@@_N@std@@PAX@std@@@1@QAPAU?$_Tree_node@U?$pair@$$CBU?$pair@HH@std@@_N@std@@PAX@1@@Z 0040a6f0 f i mainfunction.obj
 0001:00009700       ??$destroy@U?$pair@$$CBU?$pair@HH@std@@_N@std@@@?$_Default_allocator_traits@V?$allocator@U?$_Tree_node@U?$pair@$$CBU?$pair@HH@std@@_N@std@@PAX@std@@@std@@@std@@SAXAAV?$allocator@U?$_Tree_node@U?$pair@$$CBU?$pair@HH@std@@_N@std@@PAX@std@@@1@QAU?$pair@$$CBU?$pair@HH@std@@_N@1@@Z 0040a700 f i mainfunction.obj
 0001:00009710       ??$move@AAD@std@@YA$$QADAAD@Z 0040a710 f i mainfunction.obj
 0001:00009720       ??$swap@DX@std@@YAXAAD0@Z  0040a720 f i mainfunction.obj
 0001:00009770       ??0?$_Tree_const_iterator@V?$_Tree_val@U?$_Tree_simple_types@U?$pair@$$CBU?$pair@HH@std@@_N@std@@@std@@@std@@@std@@QAE@PAU?$_Tree_node@U?$pair@$$CBU?$pair@HH@std@@_N@std@@PAX@1@PBV?$_Tree_val@U?$_Tree_simple_types@U?$pair@$$CBU?$pair@HH@std@@_N@std@@@std@@@1@@Z 0040a770 f i mainfunction.obj
 0001:000097a0       ??0?$_Tree_iterator@V?$_Tree_val@U?$_Tree_simple_types@U?$pair@$$CBU?$pair@HH@std@@_N@std@@@std@@@std@@@std@@QAE@PAU?$_Tree_node@U?$pair@$$CBU?$pair@HH@std@@_N@std@@PAX@1@PBV?$_Tree_val@U?$_Tree_simple_types@U?$pair@$$CBU?$pair@HH@std@@_N@std@@@std@@@1@@Z 0040a7a0 f i mainfunction.obj
 0001:000097d0       ??0?$_Tree_unchecked_const_iterator@V?$_Tree_val@U?$_Tree_simple_types@U?$pair@$$CBU?$pair@HH@std@@_N@std@@@std@@@std@@U_Iterator_base0@2@@std@@QAE@PAU?$_Tree_node@U?$pair@$$CBU?$pair@HH@std@@_N@std@@PAX@1@PBV?$_Tree_val@U?$_Tree_simple_types@U?$pair@$$CBU?$pair@HH@std@@_N@std@@@std@@@1@@Z 0040a7d0 f i mainfunction.obj
 0001:00009800       ??1?$_Tree@V?$_Tmap_traits@U?$pair@HH@std@@_NU?$less@U?$pair@HH@std@@@2@V?$allocator@U?$pair@$$CBU?$pair@HH@std@@_N@std@@@2@$0A@@std@@@std@@QAE@XZ 0040a800 f i mainfunction.obj
 0001:00009860       ??1?$_Tree_comp_alloc@V?$_Tmap_traits@U?$pair@HH@std@@_NU?$less@U?$pair@HH@std@@@2@V?$allocator@U?$pair@$$CBU?$pair@HH@std@@_N@std@@@2@$0A@@std@@@std@@QAE@XZ 0040a860 f i mainfunction.obj
 0001:000098c0       ??1?$map@U?$pair@HH@std@@_NU?$less@U?$pair@HH@std@@@2@V?$allocator@U?$pair@$$CBU?$pair@HH@std@@_N@std@@@2@@std@@QAE@XZ 0040a8c0 f i mainfunction.obj
 0001:000098e0       ??1?$vector@PAVCreature@@V?$allocator@PAVCreature@@@std@@@std@@QAE@XZ 0040a8e0 f i mainfunction.obj
 0001:00009930       ??1PsyhshEngine@@UAE@XZ    0040a930 f i mainfunction.obj
 0001:00009970       ??1PsyhshTileManager@@QAE@XZ 0040a970 f i mainfunction.obj
 0001:000099c0       ??1TileManager@@QAE@XZ     0040a9c0 f i mainfunction.obj
 0001:00009a10       ??8?$_Tree_const_iterator@V?$_Tree_val@U?$_Tree_simple_types@U?$pair@$$CBU?$pair@HH@std@@_N@std@@@std@@@std@@@std@@QBE_NABV01@@Z 0040aa10 f i mainfunction.obj
 0001:00009a50       ??9?$_Tree_const_iterator@V?$_Tree_val@U?$_Tree_simple_types@U?$pair@$$CBU?$pair@HH@std@@_N@std@@@std@@@std@@@std@@QBE_NABV01@@Z 0040aa50 f i mainfunction.obj
 0001:00009aa0       ??E?$_Tree_const_iterator@V?$_Tree_val@U?$_Tree_simple_types@U?$pair@$$CBU?$pair@HH@std@@_N@std@@@std@@@std@@@std@@QAE?AV01@H@Z 0040aaa0 f i mainfunction.obj
 0001:00009ae0       ??E?$_Tree_const_iterator@V?$_Tree_val@U?$_Tree_simple_types@U?$pair@$$CBU?$pair@HH@std@@_N@std@@@std@@@std@@@std@@QAEAAV01@XZ 0040aae0 f i mainfunction.obj
 0001:00009b00       ??E?$_Tree_unchecked_const_iterator@V?$_Tree_val@U?$_Tree_simple_types@U?$pair@$$CBU?$pair@HH@std@@_N@std@@@std@@@std@@U_Iterator_base0@2@@std@@QAEAAV01@XZ 0040ab00 f i mainfunction.obj
 0001:00009ba0       ?DrawTile@TileManager@@UBEXPAVBaseEngine@@PAUSDL_Surface@@HH@Z 0040aba0 f i mainfunction.obj
 0001:00009c10       ?DrawTile@TileManager@@UBEXPAVBaseEngine@@PAUSDL_Surface@@HHHH@Z 0040ac10 f i mainfunction.obj
 0001:00009c60       ?GetTileHeight@TileManager@@QBEHXZ 0040ac60 f i mainfunction.obj
 0001:00009c80       ?GetTileWidth@TileManager@@QBEHXZ 0040ac80 f i mainfunction.obj
 0001:00009ca0       ?_Adopt@_Iterator_base0@std@@QAEXPBX@Z 0040aca0 f i mainfunction.obj
 0001:00009cb0       ?_Destroy@?$vector@PAVCreature@@V?$allocator@PAVCreature@@@std@@@std@@AAEXPAPAVCreature@@0@Z 0040acb0 f i mainfunction.obj
 0001:00009ce0       ?_Erase@?$_Tree@V?$_Tmap_traits@U?$pair@HH@std@@_NU?$less@U?$pair@HH@std@@@2@V?$allocator@U?$pair@$$CBU?$pair@HH@std@@_N@std@@@2@$0A@@std@@@std@@IAEXPAU?$_Tree_node@U?$pair@$$CBU?$pair@HH@std@@_N@std@@PAX@2@@Z 0040ace0 f i mainfunction.obj
 0001:00009d80       ?_Extract@?$_Tree@V?$_Tmap_traits@U?$pair@HH@std@@_NU?$less@U?$pair@HH@std@@@2@V?$allocator@U?$pair@$$CBU?$pair@HH@std@@_N@std@@@2@$0A@@std@@@std@@QAEPAU?$_Tree_node@U?$pair@$$CBU?$pair@HH@std@@_N@std@@PAX@2@V?$_Tree_const_iterator@V?$_Tree_val@U?$_Tree_simple_types@U?$pair@$$CBU?$pair@HH@std@@_N@std@@@std@@@std@@@2@@Z 0040ad80 f i mainfunction.obj
 0001:0000a2e0       ?_Freeheadnode@?$_Tree_comp_alloc@V?$_Tmap_traits@U?$pair@HH@std@@_NU?$less@U?$pair@HH@std@@@2@V?$allocator@U?$pair@$$CBU?$pair@HH@std@@_N@std@@@2@$0A@@std@@@std@@QAEXPAU?$_Tree_node@U?$pair@$$CBU?$pair@HH@std@@_N@std@@PAX@2@@Z 0040b2e0 f i mainfunction.obj
 0001:0000a310       ?_Get_data@?$_Tree_comp_alloc@V?$_Tmap_traits@U?$pair@HH@std@@_NU?$less@U?$pair@HH@std@@@2@V?$allocator@U?$pair@$$CBU?$pair@HH@std@@_N@std@@@2@$0A@@std@@@std@@QAEAAV?$_Tree_val@U?$_Tree_simple_types@U?$pair@$$CBU?$pair@HH@std@@_N@std@@@std@@@2@XZ 0040b310 f i mainfunction.obj
 0001:0000a330       ?_Get_data@?$_Tree_comp_alloc@V?$_Tmap_traits@U?$pair@HH@std@@_NU?$less@U?$pair@HH@std@@@2@V?$allocator@U?$pair@$$CBU?$pair@HH@std@@_N@std@@@2@$0A@@std@@@std@@QBEABV?$_Tree_val@U?$_Tree_simple_types@U?$pair@$$CBU?$pair@HH@std@@_N@std@@@std@@@2@XZ 0040b330 f i mainfunction.obj
 0001:0000a350       ?_Get_data@?$_Vector_alloc@U?$_Vec_base_types@PAVCreature@@V?$allocator@PAVCreature@@@std@@@std@@@std@@QAEAAV?$_Vector_val@U?$_Simple_types@PAVCreature@@@std@@@2@XZ 0040b350 f i mainfunction.obj
 0001:0000a370       ?_Get_first@?$_Compressed_pair@V?$allocator@PAVCreature@@@std@@V?$_Vector_val@U?$_Simple_types@PAVCreature@@@std@@@2@$00@std@@QAEAAV?$allocator@PAVCreature@@@2@XZ 0040b370 f i mainfunction.obj
 0001:0000a390       ?_Get_first@?$_Compressed_pair@V?$allocator@U?$_Tree_node@U?$pair@$$CBU?$pair@HH@std@@_N@std@@PAX@std@@@std@@V?$_Tree_val@U?$_Tree_simple_types@U?$pair@$$CBU?$pair@HH@std@@_N@std@@@std@@@2@$00@std@@QAEAAV?$allocator@U?$_Tree_node@U?$pair@$$CBU?$pair@HH@std@@_N@std@@PAX@std@@@2@XZ 0040b390 f i mainfunction.obj
 0001:0000a3b0       ?_Get_second@?$_Compressed_pair@U?$less@U?$pair@HH@std@@@std@@V?$_Compressed_pair@V?$allocator@U?$_Tree_node@U?$pair@$$CBU?$pair@HH@std@@_N@std@@PAX@std@@@std@@V?$_Tree_val@U?$_Tree_simple_types@U?$pair@$$CBU?$pair@HH@std@@_N@std@@@std@@@2@$00@2@$00@std@@QAEAAV?$_Compressed_pair@V?$allocator@U?$_Tree_node@U?$pair@$$CBU?$pair@HH@std@@_N@std@@PAX@std@@@std@@V?$_Tree_val@U?$_Tree_simple_types@U?$pair@$$CBU?$pair@HH@std@@_N@std@@@std@@@2@$00@2@XZ 0040b3b0 f i mainfunction.obj
 0001:0000a3d0       ?_Get_second@?$_Compressed_pair@U?$less@U?$pair@HH@std@@@std@@V?$_Compressed_pair@V?$allocator@U?$_Tree_node@U?$pair@$$CBU?$pair@HH@std@@_N@std@@PAX@std@@@std@@V?$_Tree_val@U?$_Tree_simple_types@U?$pair@$$CBU?$pair@HH@std@@_N@std@@@std@@@2@$00@2@$00@std@@QBEABV?$_Compressed_pair@V?$allocator@U?$_Tree_node@U?$pair@$$CBU?$pair@HH@std@@_N@std@@PAX@std@@@std@@V?$_Tree_val@U?$_Tree_simple_types@U?$pair@$$CBU?$pair@HH@std@@_N@std@@@std@@@2@$00@2@XZ 0040b3d0 f i mainfunction.obj
 0001:0000a3f0       ?_Get_second@?$_Compressed_pair@V?$allocator@PAVCreature@@@std@@V?$_Vector_val@U?$_Simple_types@PAVCreature@@@std@@@2@$00@std@@QAEAAV?$_Vector_val@U?$_Simple_types@PAVCreature@@@std@@@2@XZ 0040b3f0 f i mainfunction.obj
 0001:0000a410       ?_Get_second@?$_Compressed_pair@V?$allocator@U?$_Tree_node@U?$pair@$$CBU?$pair@HH@std@@_N@std@@PAX@std@@@std@@V?$_Tree_val@U?$_Tree_simple_types@U?$pair@$$CBU?$pair@HH@std@@_N@std@@@std@@@2@$00@std@@QAEAAV?$_Tree_val@U?$_Tree_simple_types@U?$pair@$$CBU?$pair@HH@std@@_N@std@@@std@@@2@XZ 0040b410 f i mainfunction.obj
 0001:0000a430       ?_Get_second@?$_Compressed_pair@V?$allocator@U?$_Tree_node@U?$pair@$$CBU?$pair@HH@std@@_N@std@@PAX@std@@@std@@V?$_Tree_val@U?$_Tree_simple_types@U?$pair@$$CBU?$pair@HH@std@@_N@std@@@std@@@2@$00@std@@QBEABV?$_Tree_val@U?$_Tree_simple_types@U?$pair@$$CBU?$pair@HH@std@@_N@std@@@std@@@2@XZ 0040b430 f i mainfunction.obj
 0001:0000a450       ?_Getal@?$_Tree_comp_alloc@V?$_Tmap_traits@U?$pair@HH@std@@_NU?$less@U?$pair@HH@std@@@2@V?$allocator@U?$pair@$$CBU?$pair@HH@std@@_N@std@@@2@$0A@@std@@@std@@QAEAAV?$allocator@U?$_Tree_node@U?$pair@$$CBU?$pair@HH@std@@_N@std@@PAX@std@@@2@XZ 0040b450 f i mainfunction.obj
 0001:0000a470       ?_Getal@?$_Vector_alloc@U?$_Vec_base_types@PAVCreature@@V?$allocator@PAVCreature@@@std@@@std@@@std@@QAEAAV?$allocator@PAVCreature@@@2@XZ 0040b470 f i mainfunction.obj
 0001:0000a490       ?_Lmost@?$_Tree@V?$_Tmap_traits@U?$pair@HH@std@@_NU?$less@U?$pair@HH@std@@@2@V?$allocator@U?$pair@$$CBU?$pair@HH@std@@_N@std@@@2@$0A@@std@@@std@@IBEAAPAU?$_Tree_node@U?$pair@$$CBU?$pair@HH@std@@_N@std@@PAX@2@XZ 0040b490 f i mainfunction.obj
 0001:0000a4d0       ?_Max@?$_Tree_comp_alloc@V?$_Tmap_traits@U?$pair@HH@std@@_NU?$less@U?$pair@HH@std@@@2@V?$allocator@U?$pair@$$CBU?$pair@HH@std@@_N@std@@@2@$0A@@std@@@std@@SAPAU?$_Tree_node@U?$pair@$$CBU?$pair@HH@std@@_N@std@@PAX@2@PAU32@@Z 0040b4d0 f i mainfunction.obj
 0001:0000a4f0       ?_Max@?$_Tree_val@U?$_Tree_simple_types@U?$pair@$$CBU?$pair@HH@std@@_N@std@@@std@@@std@@SAPAU?$_Tree_node@U?$pair@$$CBU?$pair@HH@std@@_N@std@@PAX@2@PAU32@@Z 0040b4f0 f i mainfunction.obj
 0001:0000a5c0       ?_Min@?$_Tree_comp_alloc@V?$_Tmap_traits@U?$pair@HH@std@@_NU?$less@U?$pair@HH@std@@@2@V?$allocator@U?$pair@$$CBU?$pair@HH@std@@_N@std@@@2@$0A@@std@@@std@@SAPAU?$_Tree_node@U?$pair@$$CBU?$pair@HH@std@@_N@std@@PAX@2@PAU32@@Z 0040b5c0 f i mainfunction.obj
 0001:0000a5e0       ?_Min@?$_Tree_val@U?$_Tree_simple_types@U?$pair@$$CBU?$pair@HH@std@@_N@std@@@std@@@std@@SAPAU?$_Tree_node@U?$pair@$$CBU?$pair@HH@std@@_N@std@@PAX@2@PAU32@@Z 0040b5e0 f i mainfunction.obj
 0001:0000a610       ?_Myend@?$_Vector_alloc@U?$_Vec_base_types@PAVCreature@@V?$allocator@PAVCreature@@@std@@@std@@@std@@QAEAAPAPAVCreature@@XZ 0040b610 f i mainfunction.obj
 0001:0000a630       ?_Myend@?$_Vector_alloc@U?$_Vec_base_types@PAVCreature@@V?$allocator@PAVCreature@@@std@@@std@@@std@@QBEABQAPAVCreature@@XZ 0040b630 f i mainfunction.obj
 0001:0000a660       ?_Myfirst@?$_Vector_alloc@U?$_Vec_base_types@PAVCreature@@V?$allocator@PAVCreature@@@std@@@std@@@std@@QAEAAPAPAVCreature@@XZ 0040b660 f i mainfunction.obj
 0001:0000a680       ?_Myhead@?$_Tree_comp_alloc@V?$_Tmap_traits@U?$pair@HH@std@@_NU?$less@U?$pair@HH@std@@@2@V?$allocator@U?$pair@$$CBU?$pair@HH@std@@_N@std@@@2@$0A@@std@@@std@@QAEAAPAU?$_Tree_node@U?$pair@$$CBU?$pair@HH@std@@_N@std@@PAX@2@XZ 0040b680 f i mainfunction.obj
 0001:0000a6a0       ?_Myhead@?$_Tree_comp_alloc@V?$_Tmap_traits@U?$pair@HH@std@@_NU?$less@U?$pair@HH@std@@@2@V?$allocator@U?$pair@$$CBU?$pair@HH@std@@_N@std@@@2@$0A@@std@@@std@@QBEABQAU?$_Tree_node@U?$pair@$$CBU?$pair@HH@std@@_N@std@@PAX@2@XZ 0040b6a0 f i mainfunction.obj
 0001:0000a6c0       ?_Mylast@?$_Vector_alloc@U?$_Vec_base_types@PAVCreature@@V?$allocator@PAVCreature@@@std@@@std@@@std@@QAEAAPAPAVCreature@@XZ 0040b6c0 f i mainfunction.obj
 0001:0000a6e0       ?_Mysize@?$_Tree_comp_alloc@V?$_Tmap_traits@U?$pair@HH@std@@_NU?$less@U?$pair@HH@std@@@2@V?$allocator@U?$pair@$$CBU?$pair@HH@std@@_N@std@@@2@$0A@@std@@@std@@QAEAAIXZ 0040b6e0 f i mainfunction.obj
 0001:0000a700       ?_Orphan_all@?$_Vector_alloc@U?$_Vec_base_types@PAVCreature@@V?$allocator@PAVCreature@@@std@@@std@@@std@@QAEXXZ 0040b700 f i mainfunction.obj
 0001:0000a720       ?_Rmost@?$_Tree@V?$_Tmap_traits@U?$pair@HH@std@@_NU?$less@U?$pair@HH@std@@@2@V?$allocator@U?$pair@$$CBU?$pair@HH@std@@_N@std@@@2@$0A@@std@@@std@@IBEAAPAU?$_Tree_node@U?$pair@$$CBU?$pair@HH@std@@_N@std@@PAX@2@XZ 0040b720 f i mainfunction.obj
 0001:0000a740       ?_Root@?$_Tree@V?$_Tmap_traits@U?$pair@HH@std@@_NU?$less@U?$pair@HH@std@@@2@V?$allocator@U?$pair@$$CBU?$pair@HH@std@@_N@std@@@2@$0A@@std@@@std@@IBEAAPAU?$_Tree_node@U?$pair@$$CBU?$pair@HH@std@@_N@std@@PAX@2@XZ 0040b740 f i mainfunction.obj
 0001:0000a7c0       ?begin@?$_Tree@V?$_Tmap_traits@U?$pair@HH@std@@_NU?$less@U?$pair@HH@std@@@2@V?$allocator@U?$pair@$$CBU?$pair@HH@std@@_N@std@@@2@$0A@@std@@@std@@QAE?AV?$_Tree_iterator@V?$_Tree_val@U?$_Tree_simple_types@U?$pair@$$CBU?$pair@HH@std@@_N@std@@@std@@@std@@@2@XZ 0040b7c0 f i mainfunction.obj
 0001:0000a890       ?capacity@?$vector@PAVCreature@@V?$allocator@PAVCreature@@@std@@@std@@QBEIXZ 0040b890 f i mainfunction.obj
 0001:0000a8f0       ?clear@?$_Tree@V?$_Tmap_traits@U?$pair@HH@std@@_NU?$less@U?$pair@HH@std@@@2@V?$allocator@U?$pair@$$CBU?$pair@HH@std@@_N@std@@@2@$0A@@std@@@std@@QAEXXZ 0040b8f0 f i mainfunction.obj
 0001:0000a9a0       ?deallocate@?$_Default_allocator_traits@V?$allocator@U?$_Tree_node@U?$pair@$$CBU?$pair@HH@std@@_N@std@@PAX@std@@@std@@@std@@SAXAAV?$allocator@U?$_Tree_node@U?$pair@$$CBU?$pair@HH@std@@_N@std@@PAX@std@@@2@QAU?$_Tree_node@U?$pair@$$CBU?$pair@HH@std@@_N@std@@PAX@2@I@Z 0040b9a0 f i mainfunction.obj
 0001:0000aa20       ?deallocate@?$allocator@PAVCreature@@@std@@QAEXQAPAVCreature@@I@Z 0040ba20 f i mainfunction.obj
 0001:0000aa60       ?end@?$_Tree@V?$_Tmap_traits@U?$pair@HH@std@@_NU?$less@U?$pair@HH@std@@@2@V?$allocator@U?$pair@$$CBU?$pair@HH@std@@_N@std@@@2@$0A@@std@@@std@@QAE?AV?$_Tree_iterator@V?$_Tree_val@U?$_Tree_simple_types@U?$pair@$$CBU?$pair@HH@std@@_N@std@@@std@@@std@@@2@XZ 0040ba60 f i mainfunction.obj
 0001:0000ad90       ??0BaseEngine@@QAE@XZ      0040bd90 f   BaseEngine.obj
 0001:0000ae60       ??1BaseEngine@@UAE@XZ      0040be60 f   BaseEngine.obj
 0001:0000aec0       ?Initialise@BaseEngine@@QAEHPBDHH0H@Z 0040bec0 f   BaseEngine.obj
 0001:0000b080       ?Deinitialise@BaseEngine@@QAEXXZ 0040c080 f   BaseEngine.obj
 0001:0000b0b0       ?MainLoop@BaseEngine@@QAEHXZ 0040c0b0 f   BaseEngine.obj
 0001:0000b270       ?DestroyOldObjects@BaseEngine@@UAEXXZ 0040c270 f   BaseEngine.obj
 0001:0000b320       ?CreateObjectArray@BaseEngine@@QAEXH@Z 0040c320 f   BaseEngine.obj
 0001:0000b390       ?StoreObjectInArray@BaseEngine@@QAEXHPAVDisplayableObject@@@Z 0040c390 f   BaseEngine.obj
 0001:0000b3b0       ?IsKeyPressed@BaseEngine@@QBE_NH@Z 0040c3b0 f   BaseEngine.obj
 0001:0000b3e0       ?GetDisplayableObject@BaseEngine@@QAEPAVDisplayableObject@@H@Z 0040c3e0 f   BaseEngine.obj
 0001:0000b410       ?KeyUp@BaseEngine@@UAEXH@Z 0040c410 f   BaseEngine.obj
 0001:0000b420       ?KeyDown@BaseEngine@@UAEXH@Z 0040c420 f   BaseEngine.obj
 0001:0000b430       ?MouseMoved@BaseEngine@@UAEXHH@Z 0040c430 f   BaseEngine.obj
 0001:0000b440       ?MouseDown@BaseEngine@@UAEXHHH@Z 0040c440 f   BaseEngine.obj
 0001:0000b450       ?MouseUp@BaseEngine@@UAEXHHH@Z 0040c450 f   BaseEngine.obj
 0001:0000b460       ?GameInit@BaseEngine@@UAEHXZ 0040c460 f   BaseEngine.obj
 0001:0000b490       ?CleanUp@BaseEngine@@UAEXXZ 0040c490 f   BaseEngine.obj
 0001:0000b4a0       ?InitialiseObjects@BaseEngine@@UAEHXZ 0040c4a0 f   BaseEngine.obj
 0001:0000b4c0       ?SetupBackgroundBuffer@BaseEngine@@UAEXXZ 0040c4c0 f   BaseEngine.obj
 0001:0000b4e0       ?GameAction@BaseEngine@@UAEXXZ 0040c4e0 f   BaseEngine.obj
 0001:0000b520       ?UnDrawStrings@BaseEngine@@UAEXXZ 0040c520 f   BaseEngine.obj
 0001:0000b530       ?DrawStringsUnderneath@BaseEngine@@UAEXXZ 0040c530 f   BaseEngine.obj
 0001:0000b540       ?DrawStringsOnTop@BaseEngine@@UAEXXZ 0040c540 f   BaseEngine.obj
 0001:0000b550       ?GameRender@BaseEngine@@UAEXXZ 0040c550 f   BaseEngine.obj
 0001:0000b740       ?UndrawObjects@BaseEngine@@UAEXXZ 0040c740 f   BaseEngine.obj
 0001:0000b7b0       ?DrawObjects@BaseEngine@@UAEXXZ 0040c7b0 f   BaseEngine.obj
 0001:0000b820       ?UpdateAllObjects@BaseEngine@@UAEXH@Z 0040c820 f   BaseEngine.obj
 0001:0000b8a0       ?NotifyAllObjects@BaseEngine@@QAEXH@Z 0040c8a0 f   BaseEngine.obj
 0001:0000b900       ?NotifyAllObjectsGetCountNonZero@BaseEngine@@QAEHH@Z 0040c900 f   BaseEngine.obj
 0001:0000b980       ?NotifyAllObjectsGetSum@BaseEngine@@QAEHH@Z 0040c980 f   BaseEngine.obj
 0001:0000b9f0       ?NotifyAllObjectsGetMax@BaseEngine@@QAEHH@Z 0040c9f0 f   BaseEngine.obj
 0001:0000ba70       ?NotifyAllObjectsGetMin@BaseEngine@@QAEHH@Z 0040ca70 f   BaseEngine.obj
 0001:0000baf0       ?FillBackground@BaseEngine@@UAEXI@Z 0040caf0 f   BaseEngine.obj
 0001:0000bb50       ?CopyAllBackgroundBuffer@BaseEngine@@QAEXXZ 0040cb50 f   BaseEngine.obj
 0001:0000bba0       ?CopyBackgroundPixels@BaseEngine@@QAEXHHHH@Z 0040cba0 f   BaseEngine.obj
 0001:0000bc70       ?GetColour@BaseEngine@@QBEIH@Z 0040cc70 f   BaseEngine.obj
 0001:0000beb0       ?DrawLine@BaseEngine@@QAEXNNNNIPAUSDL_Surface@@@Z 0040ceb0 f   BaseEngine.obj
 0001:0000c000       ?DrawThickLine@BaseEngine@@QAEXNNNNIHPAUSDL_Surface@@@Z 0040d000 f   BaseEngine.obj
 0001:0000c410       ?DrawVerticalSidedRegion@BaseEngine@@QAEXNNNNNNIPAUSDL_Surface@@@Z 0040d410 f   BaseEngine.obj
 0001:0000c6e0       ?DrawTriangle@BaseEngine@@QAEXNNNNNNIPAUSDL_Surface@@@Z 0040d6e0 f   BaseEngine.obj
 0001:0000c960       ?DrawRectangle@BaseEngine@@QAEXHHHHIPAUSDL_Surface@@@Z 0040d960 f   BaseEngine.obj
 0001:0000ca00       ?DrawOval@BaseEngine@@QAEXHHHHIPAUSDL_Surface@@@Z 0040da00 f   BaseEngine.obj
 0001:0000cb70       ?DrawHollowOval@BaseEngine@@QAEXHHHHHHHHIPAUSDL_Surface@@@Z 0040db70 f   BaseEngine.obj
 0001:0000cdd0       ?DrawPolygon@BaseEngine@@QAEXHPAN0IPAUSDL_Surface@@@Z 0040ddd0 f   BaseEngine.obj
 0001:0000d590       ?DrawString@BaseEngine@@QAEXHHPBDIPAVFont@@PAUSDL_Surface@@@Z 0040e590 f   BaseEngine.obj
 0001:0000d6c0       ?DrawShortenedArrow@BaseEngine@@QAEXHHHHHHIHHPAUSDL_Surface@@@Z 0040e6c0 f   BaseEngine.obj
 0001:0000dbe0       ?DrawShortenedLine@BaseEngine@@QAEXHHHHHHIHPAUSDL_Surface@@@Z 0040ebe0 f   BaseEngine.obj
 0001:0000dfe0       ?GetAngle@BaseEngine@@SANNNNN@Z 0040efe0 f   BaseEngine.obj
 0001:0000e080       ??0HealthBar@@QAE@PAVBaseEngine@@@Z 0040f080 f   HealthBar.obj
 0001:0000e160       ?DoUpdate@HealthBar@@UAEXH@Z 0040f160 f   HealthBar.obj
 0001:0000e320       ?Draw@HealthBar@@UAEXXZ    0040f320 f   HealthBar.obj
 0001:0000e4d0       ?AttachPositionTo@HealthBar@@QAEXABVPlayer@@@Z 0040f4d0 f   HealthBar.obj
 0001:0000e4f0       ?AttachPositionTo@HealthBar@@QAEXABVCreature@@@Z 0040f4f0 f   HealthBar.obj
 0001:0000e510       ??0Boss@@QAE@PAVBaseEngine@@U?$pair@HH@std@@@Z 0040f510 f   Boss.obj
 0001:0000e5d0       ?DoUpdate@Boss@@UAEXH@Z    0040f5d0 f   Boss.obj
 0001:0000e8a0       ?Draw@Boss@@UAEXXZ         0040f8a0 f   Boss.obj
 0001:0000e900       ?Spawn@Boss@@QAEXXZ        0040f900 f   Boss.obj
 0001:0000e960       ?Damage@Boss@@QAEXI@Z      0040f960 f   Boss.obj
 0001:0000ed30       ??$SwapPoints@H@@YAXAAH0@Z 0040fd30 f i BaseEngine.obj
 0001:0000ed60       ??$SwapPoints@N@@YAXAAN0@Z 0040fd60 f i BaseEngine.obj
 0001:0000eda0       ??$__vcrt_va_start_verify_argument_type@QBD@@YAXXZ 0040fda0 f i BaseEngine.obj
 0001:0000edb0       ??_EBaseEngine@@UAEPAXI@Z  0040fdb0 f i BaseEngine.obj
 0001:0000edb0       ??_GBaseEngine@@UAEPAXI@Z  0040fdb0 f i BaseEngine.obj
 0001:0000edf0       ?GetFont@Font@@QAEPAU_TTF_Font@@XZ 0040fdf0 f i BaseEngine.obj
 0001:0000ee10       ?GetIntsPerWindowRow@BaseEngine@@IBEHPAUSDL_Surface@@@Z 0040fe10 f i BaseEngine.obj
 0001:0000ee30       ?GetModifiedTime@BaseEngine@@UBEHXZ 0040fe30 f i BaseEngine.obj
 0001:0000ee50       ?GetTime@BaseEngine@@QBEHXZ 0040fe50 f i BaseEngine.obj
 0001:0000ee70       ?IsTimeToActWithSleep@BaseEngine@@QBE_NXZ 0040fe70 f i BaseEngine.obj
 0001:0000eef0       ?SafeSetPixel@BaseEngine@@QAEXHHIPAUSDL_Surface@@@Z 0040fef0 f i BaseEngine.obj
 0001:0000ef70       ?SetTimeToAct@BaseEngine@@QAEXH@Z 0040ff70 f i BaseEngine.obj
 0001:0000efa0       ?SymbolToKeycode@BaseEngine@@SAHH@Z 0040ffa0 f i BaseEngine.obj
 0001:0000f320       ___local_stdio_printf_options 00410320 f i BaseEngine.obj
 0001:0000f330       __vfprintf_l               00410330 f i BaseEngine.obj
 0001:0000f370       _fprintf                   00410370 f i BaseEngine.obj
 0001:0000f3c0       _printf                    004103c0 f i BaseEngine.obj
 0001:0000f410       ??0DisplayableObject@@QAE@PAVBaseEngine@@@Z 00410410 f   DisplayableObject.obj
 0001:0000f490       ??1DisplayableObject@@UAE@XZ 00410490 f   DisplayableObject.obj
 0001:0000f4b0       ?Draw@DisplayableObject@@UAEXXZ 004104b0 f   DisplayableObject.obj
 0001:0000f550       ?RedrawBackground@DisplayableObject@@UAEXXZ 00410550 f   DisplayableObject.obj
 0001:0000f590       ?DoUpdate@DisplayableObject@@UAEXH@Z 00410590 f   DisplayableObject.obj
 0001:0000f5a0       ?StoreLastScreenPositionForUndraw@DisplayableObject@@QAEXXZ 004105a0 f   DisplayableObject.obj
 0001:0000f630       ??_EDisplayableObject@@UAEPAXI@Z 00410630 f i DisplayableObject.obj
 0001:0000f630       ??_GDisplayableObject@@UAEPAXI@Z 00410630 f i DisplayableObject.obj
 0001:0000f670       ?SafeSetForegroundPixel@BaseEngine@@QAEXHHI@Z 00410670 f i DisplayableObject.obj
 0001:0000f6b0       ??0FontManager@@QAE@XZ     004106b0 f   FontManager.obj
 0001:0000f720       ??1FontManager@@QAE@XZ     00410720 f   FontManager.obj
 0001:0000f7a0       ?GetFont@FontManager@@QAEPAVFont@@PBDH@Z 004107a0 f   FontManager.obj
 0001:0000f940       ?LoadFonts@FontManager@@QAEXXZ 00410940 f   FontManager.obj
 0001:0000fa70       ??$GrowArray@PAVFont@@@@YAPAPAVFont@@PAPAV0@AAHH@Z 00410a70 f i FontManager.obj
 0001:0000fb30       ??0Font@@QAE@PBDH@Z        00410b30 f i FontManager.obj
 0001:0000fbb0       ??1Font@@QAE@XZ            00410bb0 f i FontManager.obj
 0001:0000fc30       ??_GFont@@QAEPAXI@Z        00410c30 f i FontManager.obj
 0001:0000fc70       ?GetName@Font@@QAEPBDXZ    00410c70 f i FontManager.obj
 0001:0000fc90       ?GetSize@Font@@QAEHXZ      00410c90 f i FontManager.obj
 0001:0000fcb0       ?LoadImage@ImageData@@QAE_NPBD@Z 00410cb0 f   JPGImage.obj
 0001:0000fef0       ?RenderImage@ImageData@@QBEXPAUSDL_Surface@@HHHHHH@Z 00410ef0 f   JPGImage.obj
 0001:00010020       ?RenderImageWithMask@ImageData@@QBEXPAUSDL_Surface@@HHHHHH@Z 00411020 f   JPGImage.obj
 0001:00010190       ?ShrinkFrom@ImageData@@QAEXPBV1@H@Z 00411190 f   JPGImage.obj
 0001:00010380       ?ResizeFrom@ImageData@@QAEXPBV1@HH_N@Z 00411380 f   JPGImage.obj
 0001:00010750       ?FlexibleRenderImageWithMask@ImageData@@QBEXPAUSDL_Surface@@HHHHHHHHHHHHHH@Z 00411750 f   JPGImage.obj
 0001:00010c10       ?InitImage@@YAXXZ          00411c10 f   JPGImage.obj
 0001:00010c20       ?DeinitImage@@YAXXZ        00411c20 f   JPGImage.obj
 0001:00011010       ?GetXForRotationAndCrop@@YAHHHHHHH@Z 00412010 f i JPGImage.obj
 0001:00011080       ?GetYForRotationAndCrop@@YAHHHHHHH@Z 00412080 f i JPGImage.obj
 0001:000110f0       ??0Missile@@QAE@PAVBaseEngine@@U?$pair@HH@std@@@Z 004120f0 f   Missile.obj
 0001:000111b0       ?DoUpdate@Missile@@UAEXH@Z 004121b0 f   Missile.obj
 0001:000113f0       ?Shoot@Missile@@QAEXU?$pair@HH@std@@@Z 004123f0 f   Missile.obj
 0001:00011610       ??1Missile@@UAE@XZ         00412610 f i Missile.obj
 0001:00011680       ??_GMissile@@UAEPAXI@Z     00412680 f i Missile.obj
 0001:00011680       ??_EMissile@@UAEPAXI@Z     00412680 f i Missile.obj
 0001:00011720       ??0Player@@QAE@PAVBaseEngine@@ABV?$basic_string@DU?$char_traits@D@std@@V?$allocator@D@2@@std@@II@Z 00412720 f   Player.obj
 0001:00011850       ?Draw@Player@@UAEXXZ       00412850 f   Player.obj
 0001:000118c0       ?DoUpdate@Player@@UAEXH@Z  004128c0 f   Player.obj
 0001:00011cf0       ?GetBoundingBox@Player@@QBE?AU?$pair@U?$pair@HH@std@@U12@@std@@XZ 00412cf0 f   Player.obj
 0001:00011d70       ?IsCasting@Player@@QBE_NXZ 00412d70 f   Player.obj
 0001:00011dc0       ?GetPosition@Player@@QBE?AU?$pair@HH@std@@XZ 00412dc0 f   Player.obj
 0001:00011df0       ?SetPosition@Player@@QAEXU?$pair@HH@std@@@Z 00412df0 f   Player.obj
 0001:00011e10       ?GetMaxHealth@Player@@QBEIXZ 00412e10 f   Player.obj
 0001:00011e30       ?SetMaxHealth@Player@@QAEXI@Z 00412e30 f   Player.obj
 0001:00011e50       ?GetHealth@Player@@QBEIXZ  00412e50 f   Player.obj
 0001:00011e70       ?SetHealth@Player@@QAEXI@Z 00412e70 f   Player.obj
 0001:00011e90       ?IsAlive@Player@@QBE_NXZ   00412e90 f   Player.obj
 0001:00011ec0       ?Damage@Player@@QAEXI@Z    00412ec0 f   Player.obj
 0001:00011f20       ?Kill@Player@@QAEXXZ       00412f20 f   Player.obj
 0001:00012160       ??1Player@@UAE@XZ          00413160 f i Player.obj
 0001:00012190       ??_EPlayer@@UAEPAXI@Z      00413190 f i Player.obj
 0001:00012190       ??_GPlayer@@UAEPAXI@Z      00413190 f i Player.obj
 0001:000122e0       ??0PsyhshEngine@@QAE@XZ    004132e0 f   PsyhshEngine.obj
 0001:00012540       ?SetupBackgroundBuffer@PsyhshEngine@@UAEXXZ 00413540 f   PsyhshEngine.obj
 0001:000125a0       ?InitialiseObjects@PsyhshEngine@@UAEHXZ 004135a0 f   PsyhshEngine.obj
 0001:00012a20       ?GetPlayer@PsyhshEngine@@QBEAAVPlayer@@XZ 00413a20 f   PsyhshEngine.obj
 0001:00012a40       ?GetCursor@PsyhshEngine@@QBEABVCursor@@XZ 00413a40 f   PsyhshEngine.obj
 0001:00012a60       ?GetMissile@PsyhshEngine@@QBEAAVMissile@@XZ 00413a60 f   PsyhshEngine.obj
 0001:00012a80       ?GetBoss@PsyhshEngine@@QBEAAVBoss@@XZ 00413a80 f   PsyhshEngine.obj
 0001:00012aa0       ?GetCreatures@PsyhshEngine@@QBEABV?$vector@PAVCreature@@V?$allocator@PAVCreature@@@std@@@std@@XZ 00413aa0 f   PsyhshEngine.obj
 0001:00012ac0       ?GetScore@PsyhshEngine@@QBEIXZ 00413ac0 f   PsyhshEngine.obj
 0001:00012ae0       ?AddScore@PsyhshEngine@@QAEXI@Z 00413ae0 f   PsyhshEngine.obj
 0001:00012b10       ?GetStage@PsyhshEngine@@QBEHXZ 00413b10 f   PsyhshEngine.obj
 0001:00012b30       ?LoadStage@PsyhshEngine@@QAEXABV?$basic_string@DU?$char_traits@D@std@@V?$allocator@D@2@@std@@@Z 00413b30 f   PsyhshEngine.obj
 0001:00012c60       ?GetNumberOfAliveCreatures@PsyhshEngine@@QBEIXZ 00413c60 f   PsyhshEngine.obj
 0001:00012cd0       ?NextStage@PsyhshEngine@@QAEXXZ 00413cd0 f   PsyhshEngine.obj
 0001:00012e80       ?RespawnAllCreatures@PsyhshEngine@@QAEXXZ 00413e80 f   PsyhshEngine.obj
 0001:00012ee0       ?IsPaused@PsyhshEngine@@QBE_NXZ 00413ee0 f   PsyhshEngine.obj
 0001:00012f00       ?SetPaused@PsyhshEngine@@QAEX_N@Z 00413f00 f   PsyhshEngine.obj
 0001:00012f20       ?IsCompleted@PsyhshEngine@@QBE_NXZ 00413f20 f   PsyhshEngine.obj
 0001:00012f40       ?Complete@PsyhshEngine@@QAEXXZ 00413f40 f   PsyhshEngine.obj
 0001:00012f60       ?KillTree@PsyhshEngine@@QAEXU?$pair@HH@std@@@Z 00413f60 f   PsyhshEngine.obj
 0001:00013240       ??$?0$$V@?$_Compressed_pair@V?$allocator@PAVCreature@@@std@@V?$_Vector_val@U?$_Simple_types@PAVCreature@@@std@@@2@$00@std@@QAE@U_Zero_then_variadic_args_t@1@@Z 00414240 f i PsyhshEngine.obj
 0001:00013270       ??$_Copy_memmove@PAPAVCreature@@PAPAV1@@std@@YAPAPAVCreature@@PAPAV1@00@Z 00414270 f i PsyhshEngine.obj
 0001:000132c0       ??$_Emplace_back_with_unused_capacity@PAVCreature@@@?$vector@PAVCreature@@V?$allocator@PAVCreature@@@std@@@std@@AAEX$$QAPAVCreature@@@Z 004142c0 f i PsyhshEngine.obj
 0001:00013360       ??$_Fgetc@D@std@@YA_NAADPAU_iobuf@@@Z 00414360 f i PsyhshEngine.obj
 0001:000133a0       ??$_Fputc@D@std@@YA_NDPAU_iobuf@@@Z 004143a0 f i PsyhshEngine.obj
 0001:000133e0       ??$_Get_size_of_n@$03@std@@YAII@Z 004143e0 f i PsyhshEngine.obj
 0001:00013420       ??$_Ptr_move_cat@PAVCreature@@PAV1@@std@@YA?AU_Really_trivial_ptr_iterator_tag@0@ABQAPAVCreature@@0@Z 00414420 f i PsyhshEngine.obj
 0001:00013af0       ??$_Rechecked@PAPAVCreature@@PAPAV1@@std@@YAAAPAPAVCreature@@AAPAPAV1@QAPAV1@@Z 00414af0 f i PsyhshEngine.obj
 0001:00013b10       ??$_Refancy@PAD$0A@@std@@YAPADPAD@Z 00414b10 f i PsyhshEngine.obj
 0001:00013b20       ??$_Unchecked@PAPAVCreature@@@std@@YAPAPAVCreature@@PAPAV1@@Z 00414b20 f i PsyhshEngine.obj
 0001:00013b30       ??$_Unfancy@PAVCreature@@@std@@YAPAPAVCreature@@PAPAV1@@Z 00414b30 f i PsyhshEngine.obj
 0001:00013b40       ??$_Ungetc@D@std@@YA_NABDPAU_iobuf@@@Z 00414b40 f i PsyhshEngine.obj
 0001:00013b90       ??$_Uninitialized_move@PAPAVCreature@@PAPAV1@V?$allocator@PAVCreature@@@std@@@std@@YAPAPAVCreature@@PAPAV1@00AAV?$allocator@PAVCreature@@@0@@Z 00414b90 f i PsyhshEngine.obj
 0001:00013c30       ??$_Uninitialized_move_al_unchecked@PAVCreature@@PAV1@V?$allocator@PAVCreature@@@std@@@std@@YAPAPAVCreature@@PAPAV1@00AAV?$allocator@PAVCreature@@@0@U_Really_trivial_ptr_iterator_tag@0@U?$integral_constant@_N$00@0@@Z 00414c30 f i PsyhshEngine.obj
 0001:00013c50       ??$construct@PAVCreature@@PAV1@@?$_Default_allocator_traits@V?$allocator@PAVCreature@@@std@@@std@@SAXAAV?$allocator@PAVCreature@@@1@QAPAVCreature@@$$QAPAV3@@Z 00414c50 f i PsyhshEngine.obj
 0001:00013c90       ??$destroy@PAVCreature@@@?$_Default_allocator_traits@V?$allocator@PAVCreature@@@std@@@std@@SAXAAV?$allocator@PAVCreature@@@1@QAPAVCreature@@@Z 00414c90 f i PsyhshEngine.obj
 0001:00013ca0       ??$emplace_back@PAVCreature@@@?$vector@PAVCreature@@V?$allocator@PAVCreature@@@std@@@std@@QAE@$$QAPAVCreature@@@Z 00414ca0 f i PsyhshEngine.obj
 0001:00013ea0       ??$forward@PAVCreature@@@std@@YA$$QAPAVCreature@@AAPAV1@@Z 00414ea0 f i PsyhshEngine.obj
 0001:00013eb0       ??$move@AAPAVCreature@@@std@@YA$$QAPAVCreature@@AAPAV1@@Z 00414eb0 f i PsyhshEngine.obj
 0001:00013ec0       ??$use_facet@V?$codecvt@DDU_Mbstatet@@@std@@@std@@YAABV?$codecvt@DDU_Mbstatet@@@0@ABVlocale@0@@Z 00414ec0 f i PsyhshEngine.obj
 0001:00014020       ??0?$_String_const_iterator@V?$_String_val@U?$_Simple_types@D@std@@@std@@@std@@QAE@PBDPBU_Container_base0@1@@Z 00415020 f i PsyhshEngine.obj
 0001:00014050       ??0?$_String_iterator@V?$_String_val@U?$_Simple_types@D@std@@@std@@@std@@QAE@PADPBU_Container_base0@1@@Z 00415050 f i PsyhshEngine.obj
 0001:00014080       ??0?$_Vector_alloc@U?$_Vec_base_types@PAVCreature@@V?$allocator@PAVCreature@@@std@@@std@@@std@@QAE@XZ 00415080 f i PsyhshEngine.obj
 0001:000140b0       ??0?$_Vector_val@U?$_Simple_types@PAVCreature@@@std@@@std@@QAE@XZ 004150b0 f i PsyhshEngine.obj
 0001:000140f0       ??0?$allocator@PAVCreature@@@std@@QAE@XZ 004150f0 f i PsyhshEngine.obj
 0001:00014110       ??0?$basic_filebuf@DU?$char_traits@D@std@@@std@@QAE@PAU_iobuf@@@Z 00415110 f i PsyhshEngine.obj
 0001:000141a0       ??0?$basic_ifstream@DU?$char_traits@D@std@@@std@@QAE@ABV?$basic_string@DU?$char_traits@D@std@@V?$allocator@D@2@@1@HH@Z 004151a0 f i PsyhshEngine.obj
 0001:00014210       ??0?$basic_ifstream@DU?$char_traits@D@std@@@std@@QAE@PBDHH@Z 00415210 f i PsyhshEngine.obj
 0001:00014360       ??0?$basic_string@DU?$char_traits@D@std@@V?$allocator@D@2@@std@@QAE@ID@Z 00415360 f i PsyhshEngine.obj
 0001:000143f0       ??0?$basic_string@DU?$char_traits@D@std@@V?$allocator@D@2@@std@@QAE@XZ 004153f0 f i PsyhshEngine.obj
 0001:00014450       ??0?$fpos@U_Mbstatet@@@std@@QAE@U_Mbstatet@@_J@Z 00415450 f i PsyhshEngine.obj
 0001:000144a0       ??0?$fpos@U_Mbstatet@@@std@@QAE@_J@Z 004154a0 f i PsyhshEngine.obj
 0001:000144f0       ??0?$vector@PAVCreature@@V?$allocator@PAVCreature@@@std@@@std@@QAE@XZ 004154f0 f i PsyhshEngine.obj
 0001:00014540       ??0bad_cast@std@@QAE@ABV01@@Z 00415540 f i PsyhshEngine.obj
 0001:00014570       ??0bad_cast@std@@QAE@XZ    00415570 f i PsyhshEngine.obj
 0001:000145a0       ??0exception@std@@QAE@ABV01@@Z 004155a0 f i PsyhshEngine.obj
 0001:000145f0       ??0exception@std@@QAE@QBDH@Z 004155f0 f i PsyhshEngine.obj
 0001:00014630       ??1?$basic_filebuf@DU?$char_traits@D@std@@@std@@UAE@XZ 00415630 f i PsyhshEngine.obj
 0001:000146c0       ??1?$basic_ifstream@DU?$char_traits@D@std@@@std@@UAE@XZ 004156c0 f i PsyhshEngine.obj
 0001:00014730       ??1bad_cast@std@@UAE@XZ    00415730 f i PsyhshEngine.obj
 0001:00014750       ??1exception@std@@UAE@XZ   00415750 f i PsyhshEngine.obj
 0001:00014780       ??1locale@std@@QAE@XZ      00415780 f i PsyhshEngine.obj
 0001:00014820       ??B?$fpos@U_Mbstatet@@@std@@QBE_JXZ 00415820 f i PsyhshEngine.obj
 0001:00014850       ??D?$_String_const_iterator@V?$_String_val@U?$_Simple_types@D@std@@@std@@@std@@QBEABDXZ 00415850 f i PsyhshEngine.obj
 0001:00014870       ??D?$_String_iterator@V?$_String_val@U?$_Simple_types@D@std@@@std@@@std@@QBEAADXZ 00415870 f i PsyhshEngine.obj
 0001:00014b50       ??_D?$basic_ifstream@DU?$char_traits@D@std@@@std@@QAEXXZ 00415b50 f i PsyhshEngine.obj
 0001:00014b7a       ??_E?$basic_ifstream@DU?$char_traits@D@std@@@std@@$4PPPPPPPM@A@AEPAXI@Z 00415b7a f i PsyhshEngine.obj
 0001:00014b90       ??_E?$basic_filebuf@DU?$char_traits@D@std@@@std@@UAEPAXI@Z 00415b90 f i PsyhshEngine.obj
 0001:00014b90       ??_G?$basic_filebuf@DU?$char_traits@D@std@@@std@@UAEPAXI@Z 00415b90 f i PsyhshEngine.obj
 0001:00014bd0       ??_E?$basic_ifstream@DU?$char_traits@D@std@@@std@@UAEPAXI@Z 00415bd0 f i PsyhshEngine.obj
 0001:00014bd0       ??_G?$basic_ifstream@DU?$char_traits@D@std@@@std@@UAEPAXI@Z 00415bd0 f i PsyhshEngine.obj
 0001:00014c20       ??_GPsyhshEngine@@UAEPAXI@Z 00415c20 f i PsyhshEngine.obj
 0001:00014c20       ??_EPsyhshEngine@@UAEPAXI@Z 00415c20 f i PsyhshEngine.obj
 0001:00014c60       ??_Ebad_cast@std@@UAEPAXI@Z 00415c60 f i PsyhshEngine.obj
 0001:00014c60       ??_Gbad_cast@std@@UAEPAXI@Z 00415c60 f i PsyhshEngine.obj
 0001:00014ca0       ??_Gexception@std@@UAEPAXI@Z 00415ca0 f i PsyhshEngine.obj
 0001:00014ca0       ??_Eexception@std@@UAEPAXI@Z 00415ca0 f i PsyhshEngine.obj
 0001:00014ce0       ?DrawAllTiles@TileManager@@QBEXPAVBaseEngine@@PAUSDL_Surface@@HHHH@Z 00415ce0 f i PsyhshEngine.obj
 0001:00014d30       ?DrawableObjectsChanged@BaseEngine@@QAEXXZ 00415d30 f i PsyhshEngine.obj
 0001:00014d50       ?GetBackground@BaseEngine@@QAEPAUSDL_Surface@@XZ 00415d50 f i PsyhshEngine.obj
 0001:00014d70       ?SetBaseTilesPositionOnScreen@TileManager@@QAEXHH@Z 00415d70 f i PsyhshEngine.obj
 0001:00014da0       ?_Calculate_growth@?$vector@PAVCreature@@V?$allocator@PAVCreature@@@std@@@std@@ABEII@Z 00415da0 f i PsyhshEngine.obj
 0001:00014e10       ?_Change_array@?$vector@PAVCreature@@V?$allocator@PAVCreature@@@std@@@std@@AAEXQAPAVCreature@@II@Z 00415e10 f i PsyhshEngine.obj
 0001:00014ed0       ?_Clamp_suffix_size@?$_String_val@U?$_Simple_types@D@std@@@std@@QBEIII@Z 00415ed0 f i PsyhshEngine.obj
 0001:00014f10       ?_Endwrite@?$basic_filebuf@DU?$char_traits@D@std@@@std@@IAE_NXZ 00415f10 f i PsyhshEngine.obj
 0001:000151a0       ?_Get_first@?$_Compressed_pair@V?$allocator@PAVCreature@@@std@@V?$_Vector_val@U?$_Simple_types@PAVCreature@@@std@@@2@$00@std@@QBEABV?$allocator@PAVCreature@@@2@XZ 004161a0 f i PsyhshEngine.obj
 0001:000151c0       ?_Getal@?$_Vector_alloc@U?$_Vec_base_types@PAVCreature@@V?$allocator@PAVCreature@@@std@@@std@@@std@@QBEABV?$allocator@PAVCreature@@@2@XZ 004161c0 f i PsyhshEngine.obj
 0001:000151e0       ?_Getfacet@locale@std@@QBEPBVfacet@12@I@Z 004161e0 f i PsyhshEngine.obj
 0001:00015290       ?_Has_unused_capacity@?$vector@PAVCreature@@V?$allocator@PAVCreature@@@std@@@std@@ABE_NXZ 00416290 f i PsyhshEngine.obj
 0001:000152e0       ?_Init@?$basic_filebuf@DU?$char_traits@D@std@@@std@@IAEXPAU_iobuf@@W4_Initfl@12@@Z 004162e0 f i PsyhshEngine.obj
 0001:000153e0       ?_Initcvt@?$basic_filebuf@DU?$char_traits@D@std@@@std@@IAEXPBV?$codecvt@DDU_Mbstatet@@@2@@Z 004163e0 f i PsyhshEngine.obj
 0001:00015430       ?_Lock@?$basic_filebuf@DU?$char_traits@D@std@@@std@@UAEXXZ 00416430 f i PsyhshEngine.obj
 0001:00015460       ?_Orphan_range@?$vector@PAVCreature@@V?$allocator@PAVCreature@@@std@@@std@@ABEXPAPAVCreature@@0@Z 00416460 f i PsyhshEngine.obj
 0001:00015470       ?_Reset_back@?$basic_filebuf@DU?$char_traits@D@std@@@std@@AAEXXZ 00416470 f i PsyhshEngine.obj
 0001:000154c0       ?_Set_back@?$basic_filebuf@DU?$char_traits@D@std@@@std@@AAEXXZ 004164c0 f i PsyhshEngine.obj
 0001:00015530       ?_Umove_if_noexcept1@?$vector@PAVCreature@@V?$allocator@PAVCreature@@@std@@@std@@AAEXPAPAVCreature@@00U?$integral_constant@_N$00@2@@Z 00416530 f i PsyhshEngine.obj
 0001:00015570       ?_Umove_if_noexcept@?$vector@PAVCreature@@V?$allocator@PAVCreature@@@std@@@std@@AAEXPAPAVCreature@@00@Z 00416570 f i PsyhshEngine.obj
 0001:000155b0       ?_Unchecked_begin@?$vector@PAVCreature@@V?$allocator@PAVCreature@@@std@@@std@@QAEPAPAVCreature@@XZ 004165b0 f i PsyhshEngine.obj
 0001:000155d0       ?_Unchecked_end@?$vector@PAVCreature@@V?$allocator@PAVCreature@@@std@@@std@@QAEPAPAVCreature@@XZ 004165d0 f i PsyhshEngine.obj
 0001:000155f0       ?_Unlock@?$basic_filebuf@DU?$char_traits@D@std@@@std@@UAEXXZ 004165f0 f i PsyhshEngine.obj
 0001:00015620       ?_Xlength@?$vector@PAVCreature@@V?$allocator@PAVCreature@@@std@@@std@@CAXXZ 00416620 f i PsyhshEngine.obj
 0001:00015640       ?allocate@?$allocator@PAVCreature@@@std@@QAEPAPAVCreature@@I@Z 00416640 f i PsyhshEngine.obj
 0001:00015670       ?append@?$basic_string@DU?$char_traits@D@std@@V?$allocator@D@2@@std@@QAEAAV12@ID@Z 00416670 f i PsyhshEngine.obj
 0001:00015740       ?assign@?$basic_string@DU?$char_traits@D@std@@V?$allocator@D@2@@std@@QAEAAV12@ID@Z 00416740 f i PsyhshEngine.obj
 0001:000157f0       ?assign@?$char_traits@D@std@@SAPADQADID@Z 004167f0 f i PsyhshEngine.obj
 0001:00015810       ?back@?$vector@PAVCreature@@V?$allocator@PAVCreature@@@std@@@std@@QAEAAPAVCreature@@XZ 00416810 f i PsyhshEngine.obj
 0001:00015840       ?begin@?$basic_string@DU?$char_traits@D@std@@V?$allocator@D@2@@std@@QAE?AV?$_String_iterator@V?$_String_val@U?$_Simple_types@D@std@@@std@@@2@XZ 00416840 f i PsyhshEngine.obj
 0001:000158d0       ?close@?$basic_filebuf@DU?$char_traits@D@std@@@std@@QAEPAV12@XZ 004168d0 f i PsyhshEngine.obj
 0001:00015950       ?eof@?$char_traits@D@std@@SAHXZ 00416950 f i PsyhshEngine.obj
 0001:00015960       ?eq_int_type@?$char_traits@D@std@@SA_NABH0@Z 00416960 f i PsyhshEngine.obj
 0001:00015990       ?erase@?$basic_string@DU?$char_traits@D@std@@V?$allocator@D@2@@std@@QAEAAV12@II@Z 00416990 f i PsyhshEngine.obj
 0001:00015a40       ?imbue@?$basic_filebuf@DU?$char_traits@D@std@@@std@@MAEXABVlocale@2@@Z 00416a40 f i PsyhshEngine.obj
 0001:00015a70       ?max_size@?$_Default_allocator_traits@V?$allocator@PAVCreature@@@std@@@std@@SAIABV?$allocator@PAVCreature@@@2@@Z 00416a70 f i PsyhshEngine.obj
 0001:00015a80       ?max_size@?$vector@PAVCreature@@V?$allocator@PAVCreature@@@std@@@std@@QBEIXZ 00416a80 f i PsyhshEngine.obj
 0001:00015ad0       ?not_eof@?$char_traits@D@std@@SAHABH@Z 00416ad0 f i PsyhshEngine.obj
 0001:00015b30       ?open@?$basic_filebuf@DU?$char_traits@D@std@@@std@@QAEPAV12@PBDHH@Z 00416b30 f i PsyhshEngine.obj
 0001:00015c20       ?overflow@?$basic_filebuf@DU?$char_traits@D@std@@@std@@MAEHH@Z 00416c20 f i PsyhshEngine.obj
 0001:00016000       ?pbackfail@?$basic_filebuf@DU?$char_traits@D@std@@@std@@MAEHH@Z 00417000 f i PsyhshEngine.obj
 0001:000161b0       ?push_back@?$vector@PAVCreature@@V?$allocator@PAVCreature@@@std@@@std@@QAEX$$QAPAVCreature@@@Z 004171b0 f i PsyhshEngine.obj
 0001:000161e0       ?seekoff@?$basic_filebuf@DU?$char_traits@D@std@@@std@@MAE?AV?$fpos@U_Mbstatet@@@2@_JHH@Z 004171e0 f i PsyhshEngine.obj
 0001:00016300       ?seekpos@?$basic_filebuf@DU?$char_traits@D@std@@@std@@MAE?AV?$fpos@U_Mbstatet@@@2@V32@H@Z 00417300 f i PsyhshEngine.obj
 0001:00016440       ?seekpos@?$fpos@U_Mbstatet@@@std@@QBE_JXZ 00417440 f i PsyhshEngine.obj
 0001:00016460       ?setbuf@?$basic_filebuf@DU?$char_traits@D@std@@@std@@MAEPAV?$basic_streambuf@DU?$char_traits@D@std@@@2@PAD_J@Z 00417460 f i PsyhshEngine.obj
 0001:000164f0       ?size@?$vector@PAVCreature@@V?$allocator@PAVCreature@@@std@@@std@@QBEIXZ 004174f0 f i PsyhshEngine.obj
 0001:00016530       ?state@?$fpos@U_Mbstatet@@@std@@QBE?AU_Mbstatet@@XZ 00417530 f i PsyhshEngine.obj
 0001:00016560       ?sync@?$basic_filebuf@DU?$char_traits@D@std@@@std@@MAEHXZ 00417560 f i PsyhshEngine.obj
 0001:000165f0       ?to_char_type@?$char_traits@D@std@@SADABH@Z 004175f0 f i PsyhshEngine.obj
 0001:00016600       ?to_int_type@?$char_traits@D@std@@SAHABD@Z 00417600 f i PsyhshEngine.obj
 0001:00016610       ?uflow@?$basic_filebuf@DU?$char_traits@D@std@@@std@@MAEHXZ 00417610 f i PsyhshEngine.obj
 0001:000169b0       ?underflow@?$basic_filebuf@DU?$char_traits@D@std@@@std@@MAEHXZ 004179b0 f i PsyhshEngine.obj
 0001:00016a70       ?what@exception@std@@UBEPBDXZ 00417a70 f i PsyhshEngine.obj
 0001:00016ab0       ??0PsyhshTileManager@@QAE@HH_N@Z 00417ab0 f   PsyhshTileManager.obj
 0001:00016b70       ?DrawTileAt@PsyhshTileManager@@UBEXPAVBaseEngine@@PAUSDL_Surface@@HHHH@Z 00417b70 f   PsyhshTileManager.obj
 0001:00016bf0       ?IsTreeDead@PsyhshTileManager@@QBE_NU?$pair@HH@std@@@Z 00417bf0 f   PsyhshTileManager.obj
 0001:00016cb0       ?SetTreeDead@PsyhshTileManager@@QAEXU?$pair@HH@std@@_N@Z 00417cb0 f   PsyhshTileManager.obj
 0001:00016e00       ??$?0$$V@?$_Compressed_pair@V?$allocator@U?$_Tree_node@U?$pair@$$CBU?$pair@HH@std@@_N@std@@PAX@std@@@std@@V?$_Tree_val@U?$_Tree_simple_types@U?$pair@$$CBU?$pair@HH@std@@_N@std@@@std@@@2@$00@std@@QAE@U_Zero_then_variadic_args_t@1@@Z 00417e00 f i PsyhshTileManager.obj
 0001:00016e30       ??$?0AAHAAH$0A@@?$pair@HH@std@@QAE@AAH0@Z 00417e30 f i PsyhshTileManager.obj
 0001:00016e80       ??$?0AAU?$pair@HH@std@@AA_N$0A@@?$pair@$$CBU?$pair@HH@std@@_N@std@@QAE@AAU?$pair@HH@1@AA_N@Z 00417e80 f i PsyhshTileManager.obj
 0001:00016ed0       ??$?0AAU?$pair@HH@std@@AB_N$0A@@?$pair@$$CBU?$pair@HH@std@@_N@std@@QAE@AAU?$pair@HH@1@AB_N@Z 00417ed0 f i PsyhshTileManager.obj
 0001:00016f20       ??$?0AAV?$_Tree_iterator@V?$_Tree_val@U?$_Tree_simple_types@U?$pair@$$CBU?$pair@HH@std@@_N@std@@@std@@@std@@@std@@_N$0A@@?$pair@V?$_Tree_iterator@V?$_Tree_val@U?$_Tree_simple_types@U?$pair@$$CBU?$pair@HH@std@@_N@std@@@std@@@std@@@std@@_N@std@@QAE@AAV?$_Tree_iterator@V?$_Tree_val@U?$_Tree_simple_types@U?$pair@$$CBU?$pair@HH@std@@_N@std@@@std@@@std@@@1@$$QA_N@Z 00417f20 f i PsyhshTileManager.obj
 0001:00016f70       ??$?0ABU?$less@U?$pair@HH@std@@@std@@U_Zero_then_variadic_args_t@1@@?$_Compressed_pair@U?$less@U?$pair@HH@std@@@std@@V?$_Compressed_pair@V?$allocator@U?$_Tree_node@U?$pair@$$CBU?$pair@HH@std@@_N@std@@PAX@std@@@std@@V?$_Tree_val@U?$_Tree_simple_types@U?$pair@$$CBU?$pair@HH@std@@_N@std@@@std@@@2@$00@2@$00@std@@QAE@U_One_then_variadic_args_t@1@ABU?$less@U?$pair@HH@std@@@1@$$QAU_Zero_then_variadic_args_t@1@@Z 00417f70 f i PsyhshTileManager.obj
 0001:00016fc0       ??$?0V?$_Tree_iterator@V?$_Tree_val@U?$_Tree_simple_types@U?$pair@$$CBU?$pair@HH@std@@_N@std@@@std@@@std@@@std@@_N$0A@@?$pair@V?$_Tree_iterator@V?$_Tree_val@U?$_Tree_simple_types@U?$pair@$$CBU?$pair@HH@std@@_N@std@@@std@@@std@@@std@@_N@std@@QAE@$$QAV?$_Tree_iterator@V?$_Tree_val@U?$_Tree_simple_types@U?$pair@$$CBU?$pair@HH@std@@_N@std@@@std@@@std@@@1@$$QA_N@Z 00417fc0 f i PsyhshTileManager.obj
 0001:00017010       ??$?MHH@std@@YA_NABU?$pair@HH@0@0@Z 00418010 f i PsyhshTileManager.obj
 0001:00017070       ??$_Buy_if_not_node@U?$pair@$$CBU?$pair@HH@std@@_N@std@@@?$_Tree@V?$_Tmap_traits@U?$pair@HH@std@@_NU?$less@U?$pair@HH@std@@@2@V?$allocator@U?$pair@$$CBU?$pair@HH@std@@_N@std@@@2@$0A@@std@@@std@@IAEPAU?$_Tree_node@U?$pair@$$CBU?$pair@HH@std@@_N@std@@PAX@1@U_Not_a_node_tag@1@$$QAU?$pair@$$CBU?$pair@HH@std@@_N@1@@Z 00418070 f i PsyhshTileManager.obj
 0001:000170a0       ??$_Buynode@U?$pair@$$CBU?$pair@HH@std@@_N@std@@@?$_Tree_comp_alloc@V?$_Tmap_traits@U?$pair@HH@std@@_NU?$less@U?$pair@HH@std@@@2@V?$allocator@U?$pair@$$CBU?$pair@HH@std@@_N@std@@@2@$0A@@std@@@std@@QAEPAU?$_Tree_node@U?$pair@$$CBU?$pair@HH@std@@_N@std@@PAX@1@$$QAU?$pair@$$CBU?$pair@HH@std@@_N@1@@Z 004180a0 f i PsyhshTileManager.obj
 0001:000171a0       ??$_Get_size_of_n@$0BM@@std@@YAII@Z 004181a0 f i PsyhshTileManager.obj
 0001:000171e0       ??$_Insert_at@U?$pair@$$CBU?$pair@HH@std@@_N@std@@U_Not_a_node_tag@2@@?$_Tree@V?$_Tmap_traits@U?$pair@HH@std@@_NU?$less@U?$pair@HH@std@@@2@V?$allocator@U?$pair@$$CBU?$pair@HH@std@@_N@std@@@2@$0A@@std@@@std@@IAE?AV?$_Tree_iterator@V?$_Tree_val@U?$_Tree_simple_types@U?$pair@$$CBU?$pair@HH@std@@_N@std@@@std@@@std@@@1@_NPAU?$_Tree_node@U?$pair@$$CBU?$pair@HH@std@@_N@std@@PAX@1@$$QAU?$pair@$$CBU?$pair@HH@std@@_N@1@U_Not_a_node_tag@1@@Z 004181e0 f i PsyhshTileManager.obj
 0001:00017520       ??$_Insert_nohint@U?$pair@$$CBU?$pair@HH@std@@_N@std@@U_Not_a_node_tag@2@@?$_Tree@V?$_Tmap_traits@U?$pair@HH@std@@_NU?$less@U?$pair@HH@std@@@2@V?$allocator@U?$pair@$$CBU?$pair@HH@std@@_N@std@@@2@$0A@@std@@@std@@IAE?AU?$pair@V?$_Tree_iterator@V?$_Tree_val@U?$_Tree_simple_types@U?$pair@$$CBU?$pair@HH@std@@_N@std@@@std@@@std@@@std@@_N@1@_N$$QAU?$pair@$$CBU?$pair@HH@std@@_N@1@U_Not_a_node_tag@1@@Z 00418520 f i PsyhshTileManager.obj
 0001:000178f0       ??$_Kfn@$$CBU?$pair@HH@std@@_N@?$_Tmap_traits@U?$pair@HH@std@@_NU?$less@U?$pair@HH@std@@@2@V?$allocator@U?$pair@$$CBU?$pair@HH@std@@_N@std@@@2@$0A@@std@@SAABU?$pair@HH@1@ABU?$pair@$$CBU?$pair@HH@std@@_N@1@@Z 004188f0 f i PsyhshTileManager.obj
 0001:00017900       ??$_Lbound@U?$pair@HH@std@@@?$_Tree@V?$_Tmap_traits@U?$pair@HH@std@@_NU?$less@U?$pair@HH@std@@@2@V?$allocator@U?$pair@$$CBU?$pair@HH@std@@_N@std@@@2@$0A@@std@@@std@@IBEPAU?$_Tree_node@U?$pair@$$CBU?$pair@HH@std@@_N@std@@PAX@1@ABU?$pair@HH@1@@Z 00418900 f i PsyhshTileManager.obj
 0001:00017990       ??$construct@PAU?$_Tree_node@U?$pair@$$CBU?$pair@HH@std@@_N@std@@PAX@std@@AAPAU12@@?$_Default_allocator_traits@V?$allocator@U?$_Tree_node@U?$pair@$$CBU?$pair@HH@std@@_N@std@@PAX@std@@@std@@@std@@SAXAAV?$allocator@U?$_Tree_node@U?$pair@$$CBU?$pair@HH@std@@_N@std@@PAX@std@@@1@QAPAU?$_Tree_node@U?$pair@$$CBU?$pair@HH@std@@_N@std@@PAX@1@AAPAU31@@Z 00418990 f i PsyhshTileManager.obj
 0001:000179d0       ??$construct@U?$pair@$$CBU?$pair@HH@std@@_N@std@@U12@@?$_Default_allocator_traits@V?$allocator@U?$_Tree_node@U?$pair@$$CBU?$pair@HH@std@@_N@std@@PAX@std@@@std@@@std@@SAXAAV?$allocator@U?$_Tree_node@U?$pair@$$CBU?$pair@HH@std@@_N@std@@PAX@std@@@1@QAU?$pair@$$CBU?$pair@HH@std@@_N@1@$$QAU31@@Z 004189d0 f i PsyhshTileManager.obj
 0001:00017a20       ??$forward@AAH@std@@YAAAHAAH@Z 00418a20 f i PsyhshTileManager.obj
 0001:00017a30       ??$forward@AAPAU?$_Tree_node@U?$pair@$$CBU?$pair@HH@std@@_N@std@@PAX@std@@@std@@YAAAPAU?$_Tree_node@U?$pair@$$CBU?$pair@HH@std@@_N@std@@PAX@0@AAPAU10@@Z 00418a30 f i PsyhshTileManager.obj
 0001:00017a40       ??$forward@AAV?$_Tree_iterator@V?$_Tree_val@U?$_Tree_simple_types@U?$pair@$$CBU?$pair@HH@std@@_N@std@@@std@@@std@@@std@@@std@@YAAAV?$_Tree_iterator@V?$_Tree_val@U?$_Tree_simple_types@U?$pair@$$CBU?$pair@HH@std@@_N@std@@@std@@@std@@@0@AAV10@@Z 00418a40 f i PsyhshTileManager.obj
 0001:00017a50       ??$forward@AA_N@std@@YAAA_NAA_N@Z 00418a50 f i PsyhshTileManager.obj
 0001:00017a60       ??$forward@ABU?$less@U?$pair@HH@std@@@std@@@std@@YAABU?$less@U?$pair@HH@std@@@0@ABU10@@Z 00418a60 f i PsyhshTileManager.obj
 0001:00017a70       ??$forward@AB_N@std@@YAAB_NAB_N@Z 00418a70 f i PsyhshTileManager.obj
 0001:00017a80       ??$forward@U?$pair@$$CBU?$pair@HH@std@@_N@std@@@std@@YA$$QAU?$pair@$$CBU?$pair@HH@std@@_N@0@AAU10@@Z 00418a80 f i PsyhshTileManager.obj
 0001:00017a90       ??$forward@U_Zero_then_variadic_args_t@std@@@std@@YA$$QAU_Zero_then_variadic_args_t@0@AAU10@@Z 00418a90 f i PsyhshTileManager.obj
 0001:00017aa0       ??$forward@V?$_Tree_iterator@V?$_Tree_val@U?$_Tree_simple_types@U?$pair@$$CBU?$pair@HH@std@@_N@std@@@std@@@std@@@std@@@std@@YA$$QAV?$_Tree_iterator@V?$_Tree_val@U?$_Tree_simple_types@U?$pair@$$CBU?$pair@HH@std@@_N@std@@@std@@@std@@@0@AAV10@@Z 00418aa0 f i PsyhshTileManager.obj
 0001:00017ab0       ??$insert@$0A@$0A@@?$_Tree@V?$_Tmap_traits@U?$pair@HH@std@@_NU?$less@U?$pair@HH@std@@@2@V?$allocator@U?$pair@$$CBU?$pair@HH@std@@_N@std@@@2@$0A@@std@@@std@@QAE?AU?$pair@V?$_Tree_iterator@V?$_Tree_val@U?$_Tree_simple_types@U?$pair@$$CBU?$pair@HH@std@@_N@std@@@std@@@std@@@std@@_N@1@$$QAU?$pair@$$CBU?$pair@HH@std@@_N@1@@Z 00418ab0 f i PsyhshTileManager.obj
 0001:00017af0       ??$move@AAU?$pair@$$CBU?$pair@HH@std@@_N@std@@@std@@YA$$QAU?$pair@$$CBU?$pair@HH@std@@_N@0@AAU10@@Z 00418af0 f i PsyhshTileManager.obj
 0001:00017b00       ??0?$_Tree@V?$_Tmap_traits@U?$pair@HH@std@@_NU?$less@U?$pair@HH@std@@@2@V?$allocator@U?$pair@$$CBU?$pair@HH@std@@_N@std@@@2@$0A@@std@@@std@@QAE@ABU?$less@U?$pair@HH@std@@@1@@Z 00418b00 f i PsyhshTileManager.obj
 0001:00017b30       ??0?$_Tree_comp_alloc@V?$_Tmap_traits@U?$pair@HH@std@@_NU?$less@U?$pair@HH@std@@@2@V?$allocator@U?$pair@$$CBU?$pair@HH@std@@_N@std@@@2@$0A@@std@@@std@@QAE@ABU?$less@U?$pair@HH@std@@@1@@Z 00418b30 f i PsyhshTileManager.obj
 0001:00017b70       ??0?$_Tree_val@U?$_Tree_simple_types@U?$pair@$$CBU?$pair@HH@std@@_N@std@@@std@@@std@@QAE@XZ 00418b70 f i PsyhshTileManager.obj
 0001:00017ba0       ??0?$allocator@U?$_Tree_node@U?$pair@$$CBU?$pair@HH@std@@_N@std@@PAX@std@@@std@@QAE@XZ 00418ba0 f i PsyhshTileManager.obj
 0001:00017bc0       ??0?$map@U?$pair@HH@std@@_NU?$less@U?$pair@HH@std@@@2@V?$allocator@U?$pair@$$CBU?$pair@HH@std@@_N@std@@@2@@std@@QAE@XZ 00418bc0 f i PsyhshTileManager.obj
 0001:00017bf0       ??0TileManager@@QAE@HH@Z   00418bf0 f i PsyhshTileManager.obj
 0001:00017c70       ??C?$_Tree_iterator@V?$_Tree_val@U?$_Tree_simple_types@U?$pair@$$CBU?$pair@HH@std@@_N@std@@@std@@@std@@@std@@QBEPAU?$pair@$$CBU?$pair@HH@std@@_N@1@XZ 00418c70 f i PsyhshTileManager.obj
 0001:00017ca0       ??D?$_Tree_const_iterator@V?$_Tree_val@U?$_Tree_simple_types@U?$pair@$$CBU?$pair@HH@std@@_N@std@@@std@@@std@@@std@@QBEABU?$pair@$$CBU?$pair@HH@std@@_N@1@XZ 00418ca0 f i PsyhshTileManager.obj
 0001:00017cc0       ??D?$_Tree_iterator@V?$_Tree_val@U?$_Tree_simple_types@U?$pair@$$CBU?$pair@HH@std@@_N@std@@@std@@@std@@@std@@QBEAAU?$pair@$$CBU?$pair@HH@std@@_N@1@XZ 00418cc0 f i PsyhshTileManager.obj
 0001:00017ce0       ??F?$_Tree_const_iterator@V?$_Tree_val@U?$_Tree_simple_types@U?$pair@$$CBU?$pair@HH@std@@_N@std@@@std@@@std@@@std@@QAEAAV01@XZ 00418ce0 f i PsyhshTileManager.obj
 0001:00017d00       ??F?$_Tree_iterator@V?$_Tree_val@U?$_Tree_simple_types@U?$pair@$$CBU?$pair@HH@std@@_N@std@@@std@@@std@@@std@@QAEAAV01@XZ 00418d00 f i PsyhshTileManager.obj
 0001:00017d20       ??F?$_Tree_unchecked_const_iterator@V?$_Tree_val@U?$_Tree_simple_types@U?$pair@$$CBU?$pair@HH@std@@_N@std@@@std@@@std@@U_Iterator_base0@2@@std@@QAEAAV01@XZ 00418d20 f i PsyhshTileManager.obj
 0001:00017de0       ??R?$less@U?$pair@HH@std@@@std@@QBE_NABU?$pair@HH@1@0@Z 00418de0 f i PsyhshTileManager.obj
 0001:00017e10       ?_Buyheadnode@?$_Tree_comp_alloc@V?$_Tmap_traits@U?$pair@HH@std@@_NU?$less@U?$pair@HH@std@@@2@V?$allocator@U?$pair@$$CBU?$pair@HH@std@@_N@std@@@2@$0A@@std@@@std@@QAEPAU?$_Tree_node@U?$pair@$$CBU?$pair@HH@std@@_N@std@@PAX@2@XZ 00418e10 f i PsyhshTileManager.obj
 0001:00017f50       ?_Buynode0@?$_Tree_comp_alloc@V?$_Tmap_traits@U?$pair@HH@std@@_NU?$less@U?$pair@HH@std@@@2@V?$allocator@U?$pair@$$CBU?$pair@HH@std@@_N@std@@@2@$0A@@std@@@std@@QAEPAU?$_Tree_node@U?$pair@$$CBU?$pair@HH@std@@_N@std@@PAX@2@XZ 00418f50 f i PsyhshTileManager.obj
 0001:00018090       ?_Compare@?$_Tree@V?$_Tmap_traits@U?$pair@HH@std@@_NU?$less@U?$pair@HH@std@@@2@V?$allocator@U?$pair@$$CBU?$pair@HH@std@@_N@std@@@2@$0A@@std@@@std@@IBE_NABU?$pair@HH@2@0@Z 00419090 f i PsyhshTileManager.obj
 0001:000180c0       ?_Construct@?$_Tree_comp_alloc@V?$_Tmap_traits@U?$pair@HH@std@@_NU?$less@U?$pair@HH@std@@@2@V?$allocator@U?$pair@$$CBU?$pair@HH@std@@_N@std@@@2@$0A@@std@@@std@@QAEXXZ 004190c0 f i PsyhshTileManager.obj
 0001:000180f0       ?_Destroy_if_node@?$_Tree@V?$_Tmap_traits@U?$pair@HH@std@@_NU?$less@U?$pair@HH@std@@@2@V?$allocator@U?$pair@$$CBU?$pair@HH@std@@_N@std@@@2@$0A@@std@@@std@@IAEXU_Not_a_node_tag@2@@Z 004190f0 f i PsyhshTileManager.obj
 0001:00018100       ?_Freenode0@?$_Tree_comp_alloc@V?$_Tmap_traits@U?$pair@HH@std@@_NU?$less@U?$pair@HH@std@@@2@V?$allocator@U?$pair@$$CBU?$pair@HH@std@@_N@std@@@2@$0A@@std@@@std@@QAEXPAU?$_Tree_node@U?$pair@$$CBU?$pair@HH@std@@_N@std@@PAX@2@@Z 00419100 f i PsyhshTileManager.obj
 0001:00018130       ?_Get_first@?$_Compressed_pair@U?$less@U?$pair@HH@std@@@std@@V?$_Compressed_pair@V?$allocator@U?$_Tree_node@U?$pair@$$CBU?$pair@HH@std@@_N@std@@PAX@std@@@std@@V?$_Tree_val@U?$_Tree_simple_types@U?$pair@$$CBU?$pair@HH@std@@_N@std@@@std@@@2@$00@2@$00@std@@QAEAAU?$less@U?$pair@HH@std@@@2@XZ 00419130 f i PsyhshTileManager.obj
 0001:00018150       ?_Get_first@?$_Compressed_pair@U?$less@U?$pair@HH@std@@@std@@V?$_Compressed_pair@V?$allocator@U?$_Tree_node@U?$pair@$$CBU?$pair@HH@std@@_N@std@@PAX@std@@@std@@V?$_Tree_val@U?$_Tree_simple_types@U?$pair@$$CBU?$pair@HH@std@@_N@std@@@std@@@2@$00@2@$00@std@@QBEABU?$less@U?$pair@HH@std@@@2@XZ 00419150 f i PsyhshTileManager.obj
 0001:00018170       ?_Get_first@?$_Compressed_pair@V?$allocator@U?$_Tree_node@U?$pair@$$CBU?$pair@HH@std@@_N@std@@PAX@std@@@std@@V?$_Tree_val@U?$_Tree_simple_types@U?$pair@$$CBU?$pair@HH@std@@_N@std@@@std@@@2@$00@std@@QBEABV?$allocator@U?$_Tree_node@U?$pair@$$CBU?$pair@HH@std@@_N@std@@PAX@std@@@2@XZ 00419170 f i PsyhshTileManager.obj
 0001:00018190       ?_Getal@?$_Tree_comp_alloc@V?$_Tmap_traits@U?$pair@HH@std@@_NU?$less@U?$pair@HH@std@@@2@V?$allocator@U?$pair@$$CBU?$pair@HH@std@@_N@std@@@2@$0A@@std@@@std@@QBEABV?$allocator@U?$_Tree_node@U?$pair@$$CBU?$pair@HH@std@@_N@std@@PAX@std@@@2@XZ 00419190 f i PsyhshTileManager.obj
 0001:000181b0       ?_Getcomp@?$_Tree_comp_alloc@V?$_Tmap_traits@U?$pair@HH@std@@_NU?$less@U?$pair@HH@std@@@2@V?$allocator@U?$pair@$$CBU?$pair@HH@std@@_N@std@@@2@$0A@@std@@@std@@QAEAAU?$less@U?$pair@HH@std@@@2@XZ 004191b0 f i PsyhshTileManager.obj
 0001:000181d0       ?_Getcomp@?$_Tree_comp_alloc@V?$_Tmap_traits@U?$pair@HH@std@@_NU?$less@U?$pair@HH@std@@@2@V?$allocator@U?$pair@$$CBU?$pair@HH@std@@_N@std@@@2@$0A@@std@@@std@@QBEABU?$less@U?$pair@HH@std@@@2@XZ 004191d0 f i PsyhshTileManager.obj
 0001:000181f0       ?_Key@?$_Tree@V?$_Tmap_traits@U?$pair@HH@std@@_NU?$less@U?$pair@HH@std@@@2@V?$allocator@U?$pair@$$CBU?$pair@HH@std@@_N@std@@@2@$0A@@std@@@std@@IBEABU?$pair@HH@2@PAU?$_Tree_node@U?$pair@$$CBU?$pair@HH@std@@_N@std@@PAX@2@@Z 004191f0 f i PsyhshTileManager.obj
 0001:00018220       ?_Kfn@?$_Tree@V?$_Tmap_traits@U?$pair@HH@std@@_NU?$less@U?$pair@HH@std@@@2@V?$allocator@U?$pair@$$CBU?$pair@HH@std@@_N@std@@@2@$0A@@std@@@std@@IBEABU?$pair@HH@2@ABU?$pair@$$CBU?$pair@HH@std@@_N@2@@Z 00419220 f i PsyhshTileManager.obj
 0001:00018240       ?allocate@?$allocator@U?$_Tree_node@U?$pair@$$CBU?$pair@HH@std@@_N@std@@PAX@std@@@std@@QAEPAU?$_Tree_node@U?$pair@$$CBU?$pair@HH@std@@_N@std@@PAX@2@I@Z 00419240 f i PsyhshTileManager.obj
 0001:00018270       ?at@?$map@U?$pair@HH@std@@_NU?$less@U?$pair@HH@std@@@2@V?$allocator@U?$pair@$$CBU?$pair@HH@std@@_N@std@@@2@@std@@QAEAA_NABU?$pair@HH@2@@Z 00419270 f i PsyhshTileManager.obj
 0001:00018310       ?deallocate@?$allocator@U?$_Tree_node@U?$pair@$$CBU?$pair@HH@std@@_N@std@@PAX@std@@@std@@QAEXQAU?$_Tree_node@U?$pair@$$CBU?$pair@HH@std@@_N@std@@PAX@2@I@Z 00419310 f i PsyhshTileManager.obj
 0001:00018340       ?lower_bound@?$_Tree@V?$_Tmap_traits@U?$pair@HH@std@@_NU?$less@U?$pair@HH@std@@@2@V?$allocator@U?$pair@$$CBU?$pair@HH@std@@_N@std@@@2@$0A@@std@@@std@@QAE?AV?$_Tree_iterator@V?$_Tree_val@U?$_Tree_simple_types@U?$pair@$$CBU?$pair@HH@std@@_N@std@@@std@@@std@@@2@ABU?$pair@HH@2@@Z 00419340 f i PsyhshTileManager.obj
 0001:00018390       ?max_size@?$_Default_allocator_traits@V?$allocator@U?$_Tree_node@U?$pair@$$CBU?$pair@HH@std@@_N@std@@PAX@std@@@std@@@std@@SAIABV?$allocator@U?$_Tree_node@U?$pair@$$CBU?$pair@HH@std@@_N@std@@PAX@std@@@2@@Z 00419390 f i PsyhshTileManager.obj
 0001:000183a0       ?max_size@?$_Tree@V?$_Tmap_traits@U?$pair@HH@std@@_NU?$less@U?$pair@HH@std@@@2@V?$allocator@U?$pair@$$CBU?$pair@HH@std@@_N@std@@@2@$0A@@std@@@std@@QBEIXZ 004193a0 f i PsyhshTileManager.obj
 0001:000183d0       ?pointer_to@?$pointer_traits@PAU?$pair@$$CBU?$pair@HH@std@@_N@std@@@std@@SAPAU?$pair@$$CBU?$pair@HH@std@@_N@2@AAU32@@Z 004193d0 f i PsyhshTileManager.obj
 0001:000183f0       ?SetupBackgroundBuffer@SimpleDemo@@UAEXXZ 004193f0 f   SimpleDemo.obj
 0001:00018530       ?InitialiseObjects@SimpleDemo@@UAEHXZ 00419530 f   SimpleDemo.obj
 0001:000185e0       ?UnDrawStrings@SimpleDemo@@UAEXXZ 004195e0 f   SimpleDemo.obj
 0001:00018610       ?DrawStringsUnderneath@SimpleDemo@@UAEXXZ 00419610 f   SimpleDemo.obj
 0001:00018690       ?DrawStringsOnTop@SimpleDemo@@UAEXXZ 00419690 f   SimpleDemo.obj
 0001:00018720       ?GameAction@SimpleDemo@@UAEXXZ 00419720 f   SimpleDemo.obj
 0001:00018760       ?MouseDown@SimpleDemo@@UAEXHHH@Z 00419760 f   SimpleDemo.obj
 0001:00018790       ?KeyDown@SimpleDemo@@UAEXH@Z 00419790 f   SimpleDemo.obj
 0001:000188b0       ??0SimpleShape@@QAE@PAVSimpleDemo@@@Z 004198b0 f i SimpleDemo.obj
 0001:000189f0       ??1SimpleShape@@UAE@XZ     004199f0 f i SimpleDemo.obj
 0001:00018a10       ??_GSimpleShape@@UAEPAXI@Z 00419a10 f i SimpleDemo.obj
 0001:00018a10       ??_ESimpleShape@@UAEPAXI@Z 00419a10 f i SimpleDemo.obj
 0001:00018a50       ?DoUpdate@SimpleShape@@UAEXH@Z 00419a50 f i SimpleDemo.obj
 0001:00018ea0       ?Draw@SimpleShape@@UAEXXZ  00419ea0 f i SimpleDemo.obj
 0001:00018f50       ?SetBackgroundPixel@BaseEngine@@QAEXHHI@Z 00419f50 f i SimpleDemo.obj
 0001:00019030       ?SetExitWithCode@BaseEngine@@QAEXH@Z 0041a030 f i SimpleDemo.obj
 0001:00019050       ?SetPixel@BaseEngine@@QAEXHHIPAUSDL_Surface@@@Z 0041a050 f i SimpleDemo.obj
 0001:00019140       __vsnprintf_l              0041a140 f i SimpleDemo.obj
 0001:000191b0       __vsprintf_l               0041a1b0 f i SimpleDemo.obj
 0001:000191e0       _sprintf                   0041a1e0 f i SimpleDemo.obj
 0001:00019230       ??0SineObject@@QAE@PAVBaseEngine@@@Z 0041a230 f   SineObject.obj
 0001:000192f0       ??1SineObject@@UAE@XZ      0041a2f0 f   SineObject.obj
 0001:00019310       ?Draw@SineObject@@UAEXXZ   0041a310 f   SineObject.obj
 0001:00019370       ?DoUpdate@SineObject@@UAEXH@Z 0041a370 f   SineObject.obj
 0001:00019450       ??_GSineObject@@UAEPAXI@Z  0041a450 f i SineObject.obj
 0001:00019450       ??_ESineObject@@UAEPAXI@Z  0041a450 f i SineObject.obj
 0001:00019490       ??0Sprite@@QAE@ABV?$basic_string@DU?$char_traits@D@std@@V?$allocator@D@2@@std@@@Z 0041a490 f   Sprite.obj
 0001:000197c0       ?GetActiveSprite@Sprite@@QBEABVImageData@@XZ 0041a7c0 f   Sprite.obj
 0001:000197e0       ?GetActiveSpriteState@Sprite@@QBE?AW4SpriteState@@XZ 0041a7e0 f   Sprite.obj
 0001:00019870       ?SetActiveSpriteState@Sprite@@QAEXW4SpriteState@@_N@Z 0041a870 f   Sprite.obj
 0001:00019a40       ??$?HDU?$char_traits@D@std@@V?$allocator@D@1@@std@@YA?AV?$basic_string@DU?$char_traits@D@std@@V?$allocator@D@2@@0@ABV10@QBD@Z 0041aa40 f i Sprite.obj
 0001:00019ed0       ??Y?$basic_string@DU?$char_traits@D@std@@V?$allocator@D@2@@std@@QAEAAV01@ABV01@@Z 0041aed0 f i Sprite.obj
 0001:00019ef0       ??Y?$basic_string@DU?$char_traits@D@std@@V?$allocator@D@2@@std@@QAEAAV01@QBD@Z 0041aef0 f i Sprite.obj
 0001:00019f10       ?_Become_small@?$basic_string@DU?$char_traits@D@std@@V?$allocator@D@2@@std@@QAEXXZ 0041af10 f i Sprite.obj
 0001:00019fd0       ?append@?$basic_string@DU?$char_traits@D@std@@V?$allocator@D@2@@std@@QAEAAV12@QBD@Z 0041afd0 f i Sprite.obj
 0001:0001a010       ?reserve@?$basic_string@DU?$char_traits@D@std@@V?$allocator@D@2@@std@@QAEXI@Z 0041b010 f i Sprite.obj
 0001:0001a1d0       ??0Stage@@QAE@ABV?$basic_string@DU?$char_traits@D@std@@V?$allocator@D@2@@std@@@Z 0041b1d0 f   Stage.obj
 0001:0001a2c0       ??1Stage@@QAE@XZ           0041b2c0 f   Stage.obj
 0001:0001a2e0       ?Load@Stage@@QAEIAAVPsyhshEngine@@@Z 0041b2e0 f   Stage.obj
 0001:0001a930       ??$?0$$V@?$_Compressed_pair@V?$allocator@V?$basic_string@DU?$char_traits@D@std@@V?$allocator@D@2@@std@@@std@@V?$_Vector_val@U?$_Simple_types@V?$basic_string@DU?$char_traits@D@std@@V?$allocator@D@2@@std@@@std@@@2@$00@std@@QAE@U_Zero_then_variadic_args_t@1@@Z 0041b930 f i Stage.obj
 0001:0001a960       ??$?0KK$0A@@?$pair@HH@std@@QAE@$$QAK0@Z 0041b960 f i Stage.obj
 0001:0001a9b0       ??$?0U?$integral_constant@_N$00@std@@@_Unused_parameter@std@@QAE@$$QAU?$integral_constant@_N$00@1@@Z 0041b9b0 f i Stage.obj
 0001:0001a9d0       ??$?0V?$allocator@V?$basic_string@DU?$char_traits@D@std@@V?$allocator@D@2@@std@@@std@@$$V@?$_Compressed_pair@V?$allocator@V?$basic_string@DU?$char_traits@D@std@@V?$allocator@D@2@@std@@@std@@V?$_Vector_val@U?$_Simple_types@V?$basic_string@DU?$char_traits@D@std@@V?$allocator@D@2@@std@@@std@@@2@$00@std@@QAE@U_One_then_variadic_args_t@1@$$QAV?$allocator@V?$basic_string@DU?$char_traits@D@std@@V?$allocator@D@2@@std@@@1@@Z 0041b9d0 f i Stage.obj
 0001:0001aa00       ??$?0V?$allocator@V?$basic_string@DU?$char_traits@D@std@@V?$allocator@D@2@@std@@@std@@X@?$_Vector_alloc@U?$_Vec_base_types@V?$basic_string@DU?$char_traits@D@std@@V?$allocator@D@2@@std@@V?$allocator@V?$basic_string@DU?$char_traits@D@std@@V?$allocator@D@2@@std@@@2@@std@@@std@@QAE@$$QAV?$allocator@V?$basic_string@DU?$char_traits@D@std@@V?$allocator@D@2@@std@@@1@@Z 0041ba00 f i Stage.obj
 0001:0001aa40       ??$?6U?$char_traits@D@std@@@std@@YAAAV?$basic_ostream@DU?$char_traits@D@std@@@0@AAV10@PBD@Z 0041ba40 f i Stage.obj
 0001:0001ae40       ??$_Destroy_range1@V?$allocator@V?$basic_string@DU?$char_traits@D@std@@V?$allocator@D@2@@std@@@std@@@std@@YAXPAV?$basic_string@DU?$char_traits@D@std@@V?$allocator@D@2@@0@0AAV?$allocator@V?$basic_string@DU?$char_traits@D@std@@V?$allocator@D@2@@std@@@0@U?$integral_constant@_N$0A@@0@@Z 0041be40 f i Stage.obj
 0001:0001ae80       ??$_Destroy_range@V?$allocator@V?$basic_string@DU?$char_traits@D@std@@V?$allocator@D@2@@std@@@std@@@std@@YAXPAV?$basic_string@DU?$char_traits@D@std@@V?$allocator@D@2@@0@0AAV?$allocator@V?$basic_string@DU?$char_traits@D@std@@V?$allocator@D@2@@std@@@0@@Z 0041be80 f i Stage.obj
 0001:0001aeb0       ??$_Emplace_back_with_unused_capacity@ABV?$basic_string@DU?$char_traits@D@std@@V?$allocator@D@2@@std@@@?$vector@V?$basic_string@DU?$char_traits@D@std@@V?$allocator@D@2@@std@@V?$allocator@V?$basic_string@DU?$char_traits@D@std@@V?$allocator@D@2@@std@@@2@@std@@AAEXABV?$basic_string@DU?$char_traits@D@std@@V?$allocator@D@2@@1@@Z 0041beb0 f i Stage.obj
 0001:0001af50       ??$_Emplace_back_with_unused_capacity@ABV?$basic_string@DU?$char_traits@D@std@@V?$allocator@D@2@@std@@AAII@?$vector@V?$basic_string@DU?$char_traits@D@std@@V?$allocator@D@2@@std@@V?$allocator@V?$basic_string@DU?$char_traits@D@std@@V?$allocator@D@2@@std@@@2@@std@@AAEXABV?$basic_string@DU?$char_traits@D@std@@V?$allocator@D@2@@1@AAI$$QAI@Z 0041bf50 f i Stage.obj
 0001:0001b010       ??$_Get_size_of_n@$0BI@@std@@YAII@Z 0041c010 f i Stage.obj
 0001:0001b050       ??$_Pocca@V?$allocator@D@std@@@std@@YAXAAV?$allocator@D@0@ABV10@@Z 0041c050 f i Stage.obj
 0001:0001b080       ??$_Pocca@V?$allocator@D@std@@@std@@YAXAAV?$allocator@D@0@ABV10@U?$integral_constant@_N$0A@@0@@Z 0041c080 f i Stage.obj
 0001:0001b090       ??$_Ptr_move_cat@V?$basic_string@DU?$char_traits@D@std@@V?$allocator@D@2@@std@@V12@@std@@YA?AU_General_ptr_iterator_tag@0@ABQAV?$basic_string@DU?$char_traits@D@std@@V?$allocator@D@2@@0@0@Z 0041c090 f i Stage.obj
 0001:0001b5e0       ??$_Rechecked@PAV?$basic_string@DU?$char_traits@D@std@@V?$allocator@D@2@@std@@PAV12@@std@@YAAAPAV?$basic_string@DU?$char_traits@D@std@@V?$allocator@D@2@@0@AAPAV10@QAV10@@Z 0041c5e0 f i Stage.obj
 0001:0001b600       ??$_Traits_find_first_not_of@U?$char_traits@D@std@@@std@@YAIQBDII0IU?$integral_constant@_N$00@0@@Z 0041c600 f i Stage.obj
 0001:0001b750       ??$_Traits_find_first_not_of@U?$char_traits@D@std@@@std@@YAIQBDII0IU?$integral_constant@_N$0A@@0@@Z 0041c750 f i Stage.obj
 0001:0001b7d0       ??$_Traits_find_first_of@U?$char_traits@D@std@@@std@@YAIQBDII0IU?$integral_constant@_N$00@0@@Z 0041c7d0 f i Stage.obj
 0001:0001b930       ??$_Traits_find_first_of@U?$char_traits@D@std@@@std@@YAIQBDII0IU?$integral_constant@_N$0A@@0@@Z 0041c930 f i Stage.obj
 0001:0001b9b0       ??$_Unchecked@PAV?$basic_string@DU?$char_traits@D@std@@V?$allocator@D@2@@std@@@std@@YAPAV?$basic_string@DU?$char_traits@D@std@@V?$allocator@D@2@@0@PAV10@@Z 0041c9b0 f i Stage.obj
 0001:0001b9c0       ??$_Unfancy@V?$basic_string@DU?$char_traits@D@std@@V?$allocator@D@2@@std@@@std@@YAPAV?$basic_string@DU?$char_traits@D@std@@V?$allocator@D@2@@0@PAV10@@Z 0041c9c0 f i Stage.obj
 0001:0001b9d0       ??$_Uninitialized_move@PAV?$basic_string@DU?$char_traits@D@std@@V?$allocator@D@2@@std@@PAV12@V?$allocator@V?$basic_string@DU?$char_traits@D@std@@V?$allocator@D@2@@std@@@2@@std@@YAPAV?$basic_string@DU?$char_traits@D@std@@V?$allocator@D@2@@0@PAV10@00AAV?$allocator@V?$basic_string@DU?$char_traits@D@std@@V?$allocator@D@2@@std@@@0@@Z 0041c9d0 f i Stage.obj
 0001:0001ba80       ??$_Uninitialized_move_al_unchecked@PAV?$basic_string@DU?$char_traits@D@std@@V?$allocator@D@2@@std@@PAV12@V?$allocator@V?$basic_string@DU?$char_traits@D@std@@V?$allocator@D@2@@std@@@2@@std@@YAPAV?$basic_string@DU?$char_traits@D@std@@V?$allocator@D@2@@0@PAV10@00AAV?$allocator@V?$basic_string@DU?$char_traits@D@std@@V?$allocator@D@2@@std@@@0@U_General_ptr_iterator_tag@0@U_Unused_parameter@0@@Z 0041ca80 f i Stage.obj
 0001:0001bb80       ??$addressof@$$CBV?$basic_string@DU?$char_traits@D@std@@V?$allocator@D@2@@std@@@std@@YAPBV?$basic_string@DU?$char_traits@D@std@@V?$allocator@D@2@@0@ABV10@@Z 0041cb80 f i Stage.obj
 0001:0001bb90       ??$construct@V?$basic_string@DU?$char_traits@D@std@@V?$allocator@D@2@@std@@ABV12@@?$_Default_allocator_traits@V?$allocator@V?$basic_string@DU?$char_traits@D@std@@V?$allocator@D@2@@std@@@std@@@std@@SAXAAV?$allocator@V?$basic_string@DU?$char_traits@D@std@@V?$allocator@D@2@@std@@@1@QAV?$basic_string@DU?$char_traits@D@std@@V?$allocator@D@2@@1@ABV31@@Z 0041cb90 f i Stage.obj
 0001:0001bc20       ??$construct@V?$basic_string@DU?$char_traits@D@std@@V?$allocator@D@2@@std@@ABV12@AAII@?$_Default_allocator_traits@V?$allocator@V?$basic_string@DU?$char_traits@D@std@@V?$allocator@D@2@@std@@@std@@@std@@SAXAAV?$allocator@V?$basic_string@DU?$char_traits@D@std@@V?$allocator@D@2@@std@@@1@QAV?$basic_string@DU?$char_traits@D@std@@V?$allocator@D@2@@1@ABV31@AAI$$QAI@Z 0041cc20 f i Stage.obj
 0001:0001bce0       ??$construct@V?$basic_string@DU?$char_traits@D@std@@V?$allocator@D@2@@std@@V12@@?$_Default_allocator_traits@V?$allocator@V?$basic_string@DU?$char_traits@D@std@@V?$allocator@D@2@@std@@@std@@@std@@SAXAAV?$allocator@V?$basic_string@DU?$char_traits@D@std@@V?$allocator@D@2@@std@@@1@QAV?$basic_string@DU?$char_traits@D@std@@V?$allocator@D@2@@1@$$QAV31@@Z 0041cce0 f i Stage.obj
 0001:0001bd20       ??$destroy@V?$basic_string@DU?$char_traits@D@std@@V?$allocator@D@2@@std@@@?$_Default_allocator_traits@V?$allocator@V?$basic_string@DU?$char_traits@D@std@@V?$allocator@D@2@@std@@@std@@@std@@SAXAAV?$allocator@V?$basic_string@DU?$char_traits@D@std@@V?$allocator@D@2@@std@@@1@QAV?$basic_string@DU?$char_traits@D@std@@V?$allocator@D@2@@1@@Z 0041cd20 f i Stage.obj
 0001:0001bd40       ??$emplace_back@ABV?$basic_string@DU?$char_traits@D@std@@V?$allocator@D@2@@std@@@?$vector@V?$basic_string@DU?$char_traits@D@std@@V?$allocator@D@2@@std@@V?$allocator@V?$basic_string@DU?$char_traits@D@std@@V?$allocator@D@2@@std@@@2@@std@@QAE@ABV?$basic_string@DU?$char_traits@D@std@@V?$allocator@D@2@@1@@Z 0041cd40 f i Stage.obj
 0001:0001bf30       ??$emplace_back@ABV?$basic_string@DU?$char_traits@D@std@@V?$allocator@D@2@@std@@AAII@?$vector@V?$basic_string@DU?$char_traits@D@std@@V?$allocator@D@2@@std@@V?$allocator@V?$basic_string@DU?$char_traits@D@std@@V?$allocator@D@2@@std@@@2@@std@@QAE@ABV?$basic_string@DU?$char_traits@D@std@@V?$allocator@D@2@@1@AAI$$QAI@Z 0041cf30 f i Stage.obj
 0001:0001c170       ??$forward@AAI@std@@YAAAIAAI@Z 0041d170 f i Stage.obj
 0001:0001c180       ??$forward@ABV?$basic_string@DU?$char_traits@D@std@@V?$allocator@D@2@@std@@@std@@YAABV?$basic_string@DU?$char_traits@D@std@@V?$allocator@D@2@@0@ABV10@@Z 0041d180 f i Stage.obj
 0001:0001c190       ??$forward@I@std@@YA$$QAIAAI@Z 0041d190 f i Stage.obj
 0001:0001c1a0       ??$forward@K@std@@YA$$QAKAAK@Z 0041d1a0 f i Stage.obj
 0001:0001c1b0       ??$forward@V?$allocator@V?$basic_string@DU?$char_traits@D@std@@V?$allocator@D@2@@std@@@std@@@std@@YA$$QAV?$allocator@V?$basic_string@DU?$char_traits@D@std@@V?$allocator@D@2@@std@@@0@AAV10@@Z 0041d1b0 f i Stage.obj
 0001:0001c1c0       ??$forward@V?$basic_string@DU?$char_traits@D@std@@V?$allocator@D@2@@std@@@std@@YA$$QAV?$basic_string@DU?$char_traits@D@std@@V?$allocator@D@2@@0@AAV10@@Z 0041d1c0 f i Stage.obj
 0001:0001c1d0       ??$getline@DU?$char_traits@D@std@@V?$allocator@D@2@@std@@YAAAV?$basic_istream@DU?$char_traits@D@std@@@0@$$QAV10@AAV?$basic_string@DU?$char_traits@D@std@@V?$allocator@D@2@@0@D@Z 0041d1d0 f i Stage.obj
 0001:0001c450       ??$getline@DU?$char_traits@D@std@@V?$allocator@D@2@@std@@YAAAV?$basic_istream@DU?$char_traits@D@std@@@0@AAV10@AAV?$basic_string@DU?$char_traits@D@std@@V?$allocator@D@2@@0@@Z 0041d450 f i Stage.obj
 0001:0001c4a0       ??$move@AAV?$allocator@V?$basic_string@DU?$char_traits@D@std@@V?$allocator@D@2@@std@@@std@@@std@@YA$$QAV?$allocator@V?$basic_string@DU?$char_traits@D@std@@V?$allocator@D@2@@std@@@0@AAV10@@Z 0041d4a0 f i Stage.obj
 0001:0001c4b0       ??$move@AAV?$basic_istream@DU?$char_traits@D@std@@@std@@@std@@YA$$QAV?$basic_istream@DU?$char_traits@D@std@@@0@AAV10@@Z 0041d4b0 f i Stage.obj
 0001:0001c4c0       ??$move@AAV?$vector@V?$basic_string@DU?$char_traits@D@std@@V?$allocator@D@2@@std@@V?$allocator@V?$basic_string@DU?$char_traits@D@std@@V?$allocator@D@2@@std@@@2@@std@@@std@@YA$$QAV?$vector@V?$basic_string@DU?$char_traits@D@std@@V?$allocator@D@2@@std@@V?$allocator@V?$basic_string@DU?$char_traits@D@std@@V?$allocator@D@2@@std@@@2@@0@AAV10@@Z 0041d4c0 f i Stage.obj
 0001:0001c4d0       ??0?$_String_bitmap@D$00@std@@QAE@XZ 0041d4d0 f i Stage.obj
 0001:0001c500       ??0?$_Vector_alloc@U?$_Vec_base_types@V?$basic_string@DU?$char_traits@D@std@@V?$allocator@D@2@@std@@V?$allocator@V?$basic_string@DU?$char_traits@D@std@@V?$allocator@D@2@@std@@@2@@std@@@std@@QAE@XZ 0041d500 f i Stage.obj
 0001:0001c530       ??0?$_Vector_val@U?$_Simple_types@V?$basic_string@DU?$char_traits@D@std@@V?$allocator@D@2@@std@@@std@@@std@@QAE@XZ 0041d530 f i Stage.obj
 0001:0001c570       ??0?$allocator@V?$basic_string@DU?$char_traits@D@std@@V?$allocator@D@2@@std@@@std@@QAE@XZ 0041d570 f i Stage.obj
 0001:0001c590       ??0?$basic_string@DU?$char_traits@D@std@@V?$allocator@D@2@@std@@QAE@ABV01@@Z 0041d590 f i Stage.obj
 0001:0001c630       ??0?$basic_string@DU?$char_traits@D@std@@V?$allocator@D@2@@std@@QAE@ABV01@IIABV?$allocator@D@1@@Z 0041d630 f i Stage.obj
 0001:0001c6c0       ??0?$vector@V?$basic_string@DU?$char_traits@D@std@@V?$allocator@D@2@@std@@V?$allocator@V?$basic_string@DU?$char_traits@D@std@@V?$allocator@D@2@@std@@@2@@std@@QAE@$$QAV01@@Z 0041d6c0 f i Stage.obj
 0001:0001c760       ??0?$vector@V?$basic_string@DU?$char_traits@D@std@@V?$allocator@D@2@@std@@V?$allocator@V?$basic_string@DU?$char_traits@D@std@@V?$allocator@D@2@@std@@@2@@std@@QAE@XZ 0041d760 f i Stage.obj
 0001:0001c7b0       ??0_Sentry_base@?$basic_istream@DU?$char_traits@D@std@@@std@@QAE@AAV12@@Z 0041d7b0 f i Stage.obj
 0001:0001c830       ??0_Sentry_base@?$basic_ostream@DU?$char_traits@D@std@@@std@@QAE@AAV12@@Z 0041d830 f i Stage.obj
 0001:0001c8b0       ??0sentry@?$basic_istream@DU?$char_traits@D@std@@@std@@QAE@AAV12@_N@Z 0041d8b0 f i Stage.obj
 0001:0001c940       ??0sentry@?$basic_ostream@DU?$char_traits@D@std@@@std@@QAE@AAV12@@Z 0041d940 f i Stage.obj
 0001:0001ca40       ??1?$vector@V?$basic_string@DU?$char_traits@D@std@@V?$allocator@D@2@@std@@V?$allocator@V?$basic_string@DU?$char_traits@D@std@@V?$allocator@D@2@@std@@@2@@std@@QAE@XZ 0041da40 f i Stage.obj
 0001:0001ca90       ??1_Sentry_base@?$basic_istream@DU?$char_traits@D@std@@@std@@QAE@XZ 0041da90 f i Stage.obj
 0001:0001cb30       ??1_Sentry_base@?$basic_ostream@DU?$char_traits@D@std@@@std@@QAE@XZ 0041db30 f i Stage.obj
 0001:0001cbd0       ??1sentry@?$basic_istream@DU?$char_traits@D@std@@@std@@QAE@XZ 0041dbd0 f i Stage.obj
 0001:0001cbf0       ??1sentry@?$basic_ostream@DU?$char_traits@D@std@@@std@@QAE@XZ 0041dbf0 f i Stage.obj
 0001:0001cc60       ??3@YAXPAX0@Z              0041dc60 f i Stage.obj
 0001:0001cc70       ??4?$basic_string@DU?$char_traits@D@std@@V?$allocator@D@2@@std@@QAEAAV01@ABV01@@Z 0041dc70 f i Stage.obj
 0001:0001ccf0       ??Bsentry@?$basic_istream@DU?$char_traits@D@std@@@std@@QBE_NXZ 0041dcf0 f i Stage.obj
 0001:0001cd10       ??Bsentry@?$basic_ostream@DU?$char_traits@D@std@@@std@@QBE_NXZ 0041dd10 f i Stage.obj
 0001:0001ceb0       ??Y?$basic_string@DU?$char_traits@D@std@@V?$allocator@D@2@@std@@QAEAAV01@D@Z 0041deb0 f i Stage.obj
 0001:0001cee0       ??_G?$basic_string@DU?$char_traits@D@std@@V?$allocator@D@2@@std@@QAEPAXI@Z 0041dee0 f i Stage.obj
 0001:0001cf20       ?_Calculate_growth@?$vector@V?$basic_string@DU?$char_traits@D@std@@V?$allocator@D@2@@std@@V?$allocator@V?$basic_string@DU?$char_traits@D@std@@V?$allocator@D@2@@std@@@2@@std@@ABEII@Z 0041df20 f i Stage.obj
 0001:0001cf90       ?_Change_array@?$vector@V?$basic_string@DU?$char_traits@D@std@@V?$allocator@D@2@@std@@V?$allocator@V?$basic_string@DU?$char_traits@D@std@@V?$allocator@D@2@@std@@@2@@std@@AAEXQAV?$basic_string@DU?$char_traits@D@std@@V?$allocator@D@2@@2@II@Z 0041df90 f i Stage.obj
 0001:0001d050       ?_Check_offset_exclusive@?$_String_val@U?$_Simple_types@D@std@@@std@@QBEXI@Z 0041e050 f i Stage.obj
 0001:0001d080       ?_Construct_lv_contents@?$basic_string@DU?$char_traits@D@std@@V?$allocator@D@2@@std@@QAEXABV12@@Z 0041e080 f i Stage.obj
 0001:0001d1c0       ?_Copy_alloc@?$_String_alloc@U?$_String_base_types@DV?$allocator@D@std@@@std@@@std@@QAEXABV?$allocator@D@2@@Z 0041e1c0 f i Stage.obj
 0001:0001d1f0       ?_Destroy@?$vector@V?$basic_string@DU?$char_traits@D@std@@V?$allocator@D@2@@std@@V?$allocator@V?$basic_string@DU?$char_traits@D@std@@V?$allocator@D@2@@std@@@2@@std@@AAEXPAV?$basic_string@DU?$char_traits@D@std@@V?$allocator@D@2@@2@0@Z 0041e1f0 f i Stage.obj
 0001:0001d220       ?_Eos@?$basic_string@DU?$char_traits@D@std@@V?$allocator@D@2@@std@@QAEXI@Z 0041e220 f i Stage.obj
 0001:0001d270       ?_Get_data@?$_Vector_alloc@U?$_Vec_base_types@V?$basic_string@DU?$char_traits@D@std@@V?$allocator@D@2@@std@@V?$allocator@V?$basic_string@DU?$char_traits@D@std@@V?$allocator@D@2@@std@@@2@@std@@@std@@QAEAAV?$_Vector_val@U?$_Simple_types@V?$basic_string@DU?$char_traits@D@std@@V?$allocator@D@2@@std@@@std@@@2@XZ 0041e270 f i Stage.obj
 0001:0001d290       ?_Get_data@?$_Vector_alloc@U?$_Vec_base_types@V?$basic_string@DU?$char_traits@D@std@@V?$allocator@D@2@@std@@V?$allocator@V?$basic_string@DU?$char_traits@D@std@@V?$allocator@D@2@@std@@@2@@std@@@std@@QBEABV?$_Vector_val@U?$_Simple_types@V?$basic_string@DU?$char_traits@D@std@@V?$allocator@D@2@@std@@@std@@@2@XZ 0041e290 f i Stage.obj
 0001:0001d2b0       ?_Get_first@?$_Compressed_pair@V?$allocator@V?$basic_string@DU?$char_traits@D@std@@V?$allocator@D@2@@std@@@std@@V?$_Vector_val@U?$_Simple_types@V?$basic_string@DU?$char_traits@D@std@@V?$allocator@D@2@@std@@@std@@@2@$00@std@@QAEAAV?$allocator@V?$basic_string@DU?$char_traits@D@std@@V?$allocator@D@2@@std@@@2@XZ 0041e2b0 f i Stage.obj
 0001:0001d2d0       ?_Get_first@?$_Compressed_pair@V?$allocator@V?$basic_string@DU?$char_traits@D@std@@V?$allocator@D@2@@std@@@std@@V?$_Vector_val@U?$_Simple_types@V?$basic_string@DU?$char_traits@D@std@@V?$allocator@D@2@@std@@@std@@@2@$00@std@@QBEABV?$allocator@V?$basic_string@DU?$char_traits@D@std@@V?$allocator@D@2@@std@@@2@XZ 0041e2d0 f i Stage.obj
 0001:0001d2f0       ?_Get_second@?$_Compressed_pair@V?$allocator@V?$basic_string@DU?$char_traits@D@std@@V?$allocator@D@2@@std@@@std@@V?$_Vector_val@U?$_Simple_types@V?$basic_string@DU?$char_traits@D@std@@V?$allocator@D@2@@std@@@std@@@2@$00@std@@QAEAAV?$_Vector_val@U?$_Simple_types@V?$basic_string@DU?$char_traits@D@std@@V?$allocator@D@2@@std@@@std@@@2@XZ 0041e2f0 f i Stage.obj
 0001:0001d310       ?_Get_second@?$_Compressed_pair@V?$allocator@V?$basic_string@DU?$char_traits@D@std@@V?$allocator@D@2@@std@@@std@@V?$_Vector_val@U?$_Simple_types@V?$basic_string@DU?$char_traits@D@std@@V?$allocator@D@2@@std@@@std@@@2@$00@std@@QBEABV?$_Vector_val@U?$_Simple_types@V?$basic_string@DU?$char_traits@D@std@@V?$allocator@D@2@@std@@@std@@@2@XZ 0041e310 f i Stage.obj
 0001:0001d330       ?_Getal@?$_Vector_alloc@U?$_Vec_base_types@V?$basic_string@DU?$char_traits@D@std@@V?$allocator@D@2@@std@@V?$allocator@V?$basic_string@DU?$char_traits@D@std@@V?$allocator@D@2@@std@@@2@@std@@@std@@QAEAAV?$allocator@V?$basic_string@DU?$char_traits@D@std@@V?$allocator@D@2@@std@@@2@XZ 0041e330 f i Stage.obj
 0001:0001d350       ?_Getal@?$_Vector_alloc@U?$_Vec_base_types@V?$basic_string@DU?$char_traits@D@std@@V?$allocator@D@2@@std@@V?$allocator@V?$basic_string@DU?$char_traits@D@std@@V?$allocator@D@2@@std@@@2@@std@@@std@@QBEABV?$allocator@V?$basic_string@DU?$char_traits@D@std@@V?$allocator@D@2@@std@@@2@XZ 0041e350 f i Stage.obj
 0001:0001d370       ?_Has_unused_capacity@?$vector@V?$basic_string@DU?$char_traits@D@std@@V?$allocator@D@2@@std@@V?$allocator@V?$basic_string@DU?$char_traits@D@std@@V?$allocator@D@2@@std@@@2@@std@@ABE_NXZ 0041e370 f i Stage.obj
 0001:0001d3c0       ?_Mark@?$_String_bitmap@D$00@std@@QAE_NPBDQBD@Z 0041e3c0 f i Stage.obj
 0001:0001d400       ?_Match@?$_String_bitmap@D$00@std@@QBE_ND@Z 0041e400 f i Stage.obj
 0001:0001d420       ?_Move_from@?$vector@V?$basic_string@DU?$char_traits@D@std@@V?$allocator@D@2@@std@@V?$allocator@V?$basic_string@DU?$char_traits@D@std@@V?$allocator@D@2@@std@@@2@@std@@AAEX$$QAV12@U?$integral_constant@_N$00@2@@Z 0041e420 f i Stage.obj
 0001:0001d500       ?_Myend@?$_Vector_alloc@U?$_Vec_base_types@V?$basic_string@DU?$char_traits@D@std@@V?$allocator@D@2@@std@@V?$allocator@V?$basic_string@DU?$char_traits@D@std@@V?$allocator@D@2@@std@@@2@@std@@@std@@QAEAAPAV?$basic_string@DU?$char_traits@D@std@@V?$allocator@D@2@@2@XZ 0041e500 f i Stage.obj
 0001:0001d520       ?_Myend@?$_Vector_alloc@U?$_Vec_base_types@V?$basic_string@DU?$char_traits@D@std@@V?$allocator@D@2@@std@@V?$allocator@V?$basic_string@DU?$char_traits@D@std@@V?$allocator@D@2@@std@@@2@@std@@@std@@QBEABQAV?$basic_string@DU?$char_traits@D@std@@V?$allocator@D@2@@2@XZ 0041e520 f i Stage.obj
 0001:0001d540       ?_Myfirst@?$_Vector_alloc@U?$_Vec_base_types@V?$basic_string@DU?$char_traits@D@std@@V?$allocator@D@2@@std@@V?$allocator@V?$basic_string@DU?$char_traits@D@std@@V?$allocator@D@2@@std@@@2@@std@@@std@@QAEAAPAV?$basic_string@DU?$char_traits@D@std@@V?$allocator@D@2@@2@XZ 0041e540 f i Stage.obj
 0001:0001d560       ?_Myfirst@?$_Vector_alloc@U?$_Vec_base_types@V?$basic_string@DU?$char_traits@D@std@@V?$allocator@D@2@@std@@V?$allocator@V?$basic_string@DU?$char_traits@D@std@@V?$allocator@D@2@@std@@@2@@std@@@std@@QBEABQAV?$basic_string@DU?$char_traits@D@std@@V?$allocator@D@2@@2@XZ 0041e560 f i Stage.obj
 0001:0001d580       ?_Mylast@?$_Vector_alloc@U?$_Vec_base_types@V?$basic_string@DU?$char_traits@D@std@@V?$allocator@D@2@@std@@V?$allocator@V?$basic_string@DU?$char_traits@D@std@@V?$allocator@D@2@@std@@@2@@std@@@std@@QAEAAPAV?$basic_string@DU?$char_traits@D@std@@V?$allocator@D@2@@2@XZ 0041e580 f i Stage.obj
 0001:0001d5a0       ?_Mylast@?$_Vector_alloc@U?$_Vec_base_types@V?$basic_string@DU?$char_traits@D@std@@V?$allocator@D@2@@std@@V?$allocator@V?$basic_string@DU?$char_traits@D@std@@V?$allocator@D@2@@std@@@2@@std@@@std@@QBEABQAV?$basic_string@DU?$char_traits@D@std@@V?$allocator@D@2@@2@XZ 0041e5a0 f i Stage.obj
 0001:0001d5c0       ?_Orphan_all@?$_Vector_alloc@U?$_Vec_base_types@V?$basic_string@DU?$char_traits@D@std@@V?$allocator@D@2@@std@@V?$allocator@V?$basic_string@DU?$char_traits@D@std@@V?$allocator@D@2@@std@@@2@@std@@@std@@QAEXXZ 0041e5c0 f i Stage.obj
 0001:0001d5e0       ?_Orphan_range@?$vector@V?$basic_string@DU?$char_traits@D@std@@V?$allocator@D@2@@std@@V?$allocator@V?$basic_string@DU?$char_traits@D@std@@V?$allocator@D@2@@std@@@2@@std@@ABEXPAV?$basic_string@DU?$char_traits@D@std@@V?$allocator@D@2@@2@0@Z 0041e5e0 f i Stage.obj
 0001:0001d5f0       ?_Reallocate_exactly@?$vector@V?$basic_string@DU?$char_traits@D@std@@V?$allocator@D@2@@std@@V?$allocator@V?$basic_string@DU?$char_traits@D@std@@V?$allocator@D@2@@std@@@2@@std@@AAEXI@Z 0041e5f0 f i Stage.obj
 0001:0001d700       ?_Swap_all@?$_Vector_alloc@U?$_Vec_base_types@V?$basic_string@DU?$char_traits@D@std@@V?$allocator@D@2@@std@@V?$allocator@V?$basic_string@DU?$char_traits@D@std@@V?$allocator@D@2@@std@@@2@@std@@@std@@QAEXAAV12@@Z 0041e700 f i Stage.obj
 0001:0001d730       ?_Swap_all@_Container_base0@std@@QAEXAAU12@@Z 0041e730 f i Stage.obj
 0001:0001d740       ?_Tidy@?$vector@V?$basic_string@DU?$char_traits@D@std@@V?$allocator@D@2@@std@@V?$allocator@V?$basic_string@DU?$char_traits@D@std@@V?$allocator@D@2@@std@@@2@@std@@AAEXXZ 0041e740 f i Stage.obj
 0001:0001d7f0       ?_Umove_if_noexcept1@?$vector@V?$basic_string@DU?$char_traits@D@std@@V?$allocator@D@2@@std@@V?$allocator@V?$basic_string@DU?$char_traits@D@std@@V?$allocator@D@2@@std@@@2@@std@@AAEXPAV?$basic_string@DU?$char_traits@D@std@@V?$allocator@D@2@@2@00U?$integral_constant@_N$00@2@@Z 0041e7f0 f i Stage.obj
 0001:0001d830       ?_Umove_if_noexcept@?$vector@V?$basic_string@DU?$char_traits@D@std@@V?$allocator@D@2@@std@@V?$allocator@V?$basic_string@DU?$char_traits@D@std@@V?$allocator@D@2@@std@@@2@@std@@AAEXPAV?$basic_string@DU?$char_traits@D@std@@V?$allocator@D@2@@2@00@Z 0041e830 f i Stage.obj
 0001:0001d870       ?_Xlength@?$vector@V?$basic_string@DU?$char_traits@D@std@@V?$allocator@D@2@@std@@V?$allocator@V?$basic_string@DU?$char_traits@D@std@@V?$allocator@D@2@@std@@@2@@std@@CAXXZ 0041e870 f i Stage.obj
 0001:0001d890       ?_Xrange@?$vector@PAVCreature@@V?$allocator@PAVCreature@@@std@@@std@@CAXXZ 0041e890 f i Stage.obj
 0001:0001d8b0       ?_Xrange@?$vector@V?$basic_string@DU?$char_traits@D@std@@V?$allocator@D@2@@std@@V?$allocator@V?$basic_string@DU?$char_traits@D@std@@V?$allocator@D@2@@std@@@2@@std@@CAXXZ 0041e8b0 f i Stage.obj
 0001:0001d8d0       ?allocate@?$allocator@V?$basic_string@DU?$char_traits@D@std@@V?$allocator@D@2@@std@@@std@@QAEPAV?$basic_string@DU?$char_traits@D@std@@V?$allocator@D@2@@2@I@Z 0041e8d0 f i Stage.obj
 0001:0001d900       ?assign@?$basic_string@DU?$char_traits@D@std@@V?$allocator@D@2@@std@@QAEAAV12@ABV12@II@Z 0041e900 f i Stage.obj
 0001:0001d970       ?at@?$basic_string@DU?$char_traits@D@std@@V?$allocator@D@2@@std@@QAEAADI@Z 0041e970 f i Stage.obj
 0001:0001d9b0       ?at@?$vector@PAVCreature@@V?$allocator@PAVCreature@@@std@@@std@@QBEABQAVCreature@@I@Z 0041e9b0 f i Stage.obj
 0001:0001d9f0       ?at@?$vector@V?$basic_string@DU?$char_traits@D@std@@V?$allocator@D@2@@std@@V?$allocator@V?$basic_string@DU?$char_traits@D@std@@V?$allocator@D@2@@std@@@2@@std@@QAEAAV?$basic_string@DU?$char_traits@D@std@@V?$allocator@D@2@@2@I@Z 0041e9f0 f i Stage.obj
 0001:0001da30       ?capacity@?$vector@V?$basic_string@DU?$char_traits@D@std@@V?$allocator@D@2@@std@@V?$allocator@V?$basic_string@DU?$char_traits@D@std@@V?$allocator@D@2@@std@@@2@@std@@QBEIXZ 0041ea30 f i Stage.obj
 0001:0001da70       ?deallocate@?$allocator@V?$basic_string@DU?$char_traits@D@std@@V?$allocator@D@2@@std@@@std@@QAEXQAV?$basic_string@DU?$char_traits@D@std@@V?$allocator@D@2@@2@I@Z 0041ea70 f i Stage.obj
 0001:0001daa0       ?erase@?$basic_string@DU?$char_traits@D@std@@V?$allocator@D@2@@std@@QAEAAV12@I@Z 0041eaa0 f i Stage.obj
 0001:0001daf0       ?find@?$char_traits@D@std@@SAPBDQBDIABD@Z 0041eaf0 f i Stage.obj
 0001:0001db20       ?find_first_not_of@?$basic_string@DU?$char_traits@D@std@@V?$allocator@D@2@@std@@QBEIABV12@I@Z 0041eb20 f i Stage.obj
 0001:0001dbc0       ?find_first_of@?$basic_string@DU?$char_traits@D@std@@V?$allocator@D@2@@std@@QBEIABV12@I@Z 0041ebc0 f i Stage.obj
 0001:0001dc60       ?max_size@?$_Default_allocator_traits@V?$allocator@V?$basic_string@DU?$char_traits@D@std@@V?$allocator@D@2@@std@@@std@@@std@@SAIABV?$allocator@V?$basic_string@DU?$char_traits@D@std@@V?$allocator@D@2@@std@@@2@@Z 0041ec60 f i Stage.obj
 0001:0001dc70       ?max_size@?$vector@V?$basic_string@DU?$char_traits@D@std@@V?$allocator@D@2@@std@@V?$allocator@V?$basic_string@DU?$char_traits@D@std@@V?$allocator@D@2@@std@@@2@@std@@QBEIXZ 0041ec70 f i Stage.obj
 0001:0001dcc0       ?push_back@?$basic_string@DU?$char_traits@D@std@@V?$allocator@D@2@@std@@QAEXD@Z 0041ecc0 f i Stage.obj
 0001:0001dd80       ?push_back@?$vector@V?$basic_string@DU?$char_traits@D@std@@V?$allocator@D@2@@std@@V?$allocator@V?$basic_string@DU?$char_traits@D@std@@V?$allocator@D@2@@std@@@2@@std@@QAEXABV?$basic_string@DU?$char_traits@D@std@@V?$allocator@D@2@@2@@Z 0041ed80 f i Stage.obj
 0001:0001dda0       ?reserve@?$vector@V?$basic_string@DU?$char_traits@D@std@@V?$allocator@D@2@@std@@V?$allocator@V?$basic_string@DU?$char_traits@D@std@@V?$allocator@D@2@@std@@@2@@std@@QAEXI@Z 0041eda0 f i Stage.obj
 0001:0001ddf0       ?select_on_container_copy_construction@?$_Default_allocator_traits@V?$allocator@D@std@@@std@@SA?AV?$allocator@D@2@ABV32@@Z 0041edf0 f i Stage.obj
 0001:0001de00       ?size@?$vector@V?$basic_string@DU?$char_traits@D@std@@V?$allocator@D@2@@std@@V?$allocator@V?$basic_string@DU?$char_traits@D@std@@V?$allocator@D@2@@std@@@2@@std@@QBEIXZ 0041ee00 f i Stage.obj
 0001:0001de40       ?split_string@utility@@YA?AV?$vector@V?$basic_string@DU?$char_traits@D@std@@V?$allocator@D@2@@std@@V?$allocator@V?$basic_string@DU?$char_traits@D@std@@V?$allocator@D@2@@std@@@2@@std@@ABV?$basic_string@DU?$char_traits@D@std@@V?$allocator@D@2@@3@0@Z 0041ee40 f i Stage.obj
 0001:0001df60       ?stoi@std@@YAHABV?$basic_string@DU?$char_traits@D@std@@V?$allocator@D@2@@1@PAIH@Z 0041ef60 f i Stage.obj
 0001:0001e010       ?UpdateTileAt@TileManager@@QAEXPAVBaseEngine@@HHHHH@Z 0041f010 f   TileManager.obj
 0001:0001e080       ?DrawAllTilesAt@TileManager@@QBEXPAVBaseEngine@@PAUSDL_Surface@@HHHHHH@Z 0041f080 f   TileManager.obj
 0001:0001e110       ?DrawTileAt@TileManager@@UBEXPAVBaseEngine@@PAUSDL_Surface@@HHHH@Z 0041f110 f   TileManager.obj
 0001:0001e1f0       ?GetValue@TileManager@@QBEHHH@Z 0041f1f0 f i TileManager.obj
 0001:0001e220       ?SetValue@TileManager@@QAEXHHH@Z 0041f220 f i TileManager.obj
 0001:0001e250       ??0BouncingBall@@QAE@PAVBouncingBallMain@@HHHHPBDHH@Z 0041f250 f   BouncingBall.obj
 0001:0001e370       ??1BouncingBall@@UAE@XZ    0041f370 f   BouncingBall.obj
 0001:0001e390       ?Draw@BouncingBall@@UAEXXZ 0041f390 f   BouncingBall.obj
 0001:0001e620       ?DoUpdate@BouncingBall@@UAEXH@Z 0041f620 f   BouncingBall.obj
 0001:0001e640       ??0BouncingBall1@@QAE@PAVBouncingBallMain@@HHHHPBDHHPAVTileManager@@@Z 0041f640 f   BouncingBall.obj
 0001:0001e6d0       ?SetMovement@BouncingBall1@@QAEXHHHHHHH@Z 0041f6d0 f   BouncingBall.obj
 0001:0001e740       ?DoUpdate@BouncingBall1@@UAEXH@Z 0041f740 f   BouncingBall.obj
 0001:0001e860       ??0BouncingBall2@@QAE@PAVBouncingBallMain@@HHHHPBDHH@Z 0041f860 f   BouncingBall.obj
 0001:0001e8e0       ?SetPosition@BouncingBall2@@QAEXNN@Z 0041f8e0 f   BouncingBall.obj
 0001:0001e910       ?SetSpeed@BouncingBall2@@QAEXNN@Z 0041f910 f   BouncingBall.obj
 0001:0001e940       ?DoUpdate@BouncingBall2@@UAEXH@Z 0041f940 f   BouncingBall.obj
 0001:0001ef10       ??0MovementPosition@@QAE@XZ 0041ff10 f i BouncingBall.obj
 0001:0001ef90       ??1BouncingBall1@@UAE@XZ   0041ff90 f i BouncingBall.obj
 0001:0001efb0       ??1BouncingBall2@@UAE@XZ   0041ffb0 f i BouncingBall.obj
 0001:0001efd0       ??_GBouncingBall1@@UAEPAXI@Z 0041ffd0 f i BouncingBall.obj
 0001:0001efd0       ??_EBouncingBall1@@UAEPAXI@Z 0041ffd0 f i BouncingBall.obj
 0001:0001f010       ??_GBouncingBall2@@UAEPAXI@Z 00420010 f i BouncingBall.obj
 0001:0001f010       ??_EBouncingBall2@@UAEPAXI@Z 00420010 f i BouncingBall.obj
 0001:0001f050       ??_GBouncingBall@@UAEPAXI@Z 00420050 f i BouncingBall.obj
 0001:0001f050       ??_EBouncingBall@@UAEPAXI@Z 00420050 f i BouncingBall.obj
 0001:0001f090       ?Calculate@MovementPosition@@QAEXH@Z 00420090 f i BouncingBall.obj
 0001:0001f180       ?GetTileXForPositionOnScreen@TileManager@@QBEHH@Z 00420180 f i BouncingBall.obj
 0001:0001f1b0       ?GetTileYForPositionOnScreen@TileManager@@QBEHH@Z 004201b0 f i BouncingBall.obj
 0001:0001f1e0       ?GetX@MovementPosition@@QBEHXZ 004201e0 f i BouncingBall.obj
 0001:0001f200       ?GetY@MovementPosition@@QBEHXZ 00420200 f i BouncingBall.obj
 0001:0001f220       ?HasMovementFinished@MovementPosition@@QBE_NH@Z 00420220 f i BouncingBall.obj
 0001:0001f260       ?IsValidTilePosition@TileManager@@QBE_NHH@Z 00420260 f i BouncingBall.obj
 0001:0001f2f0       ?IsVisible@DisplayableObject@@QBE_NXZ 004202f0 f i BouncingBall.obj
 0001:0001f310       ?Reverse@MovementPosition@@QAEXXZ 00420310 f i BouncingBall.obj
 0001:0001f3a0       ?Setup@MovementPosition@@QAEXHHHHHH@Z 004203a0 f i BouncingBall.obj
 0001:0001f410       ?UpdateTile@TileManager@@QAEXPAVBaseEngine@@HHH@Z 00420410 f i BouncingBall.obj
 0001:0001f470       ?SetupBackgroundBuffer@BouncingBallMain@@UAEXXZ 00420470 f   BouncingBallMain.obj
 0001:0001fb90       ?InitialiseObjects@BouncingBallMain@@UAEHXZ 00420b90 f   BouncingBallMain.obj
 0001:0001fe30       ?DrawStringsUnderneath@BouncingBallMain@@UAEXXZ 00420e30 f   BouncingBallMain.obj
 0001:0001fe70       ?MouseDown@BouncingBallMain@@UAEXHHH@Z 00420e70 f   BouncingBallMain.obj
 0001:0001feb0       ?KeyDown@BouncingBallMain@@UAEXH@Z 00420eb0 f   BouncingBallMain.obj
 0001:00020170       ?DrawBackgroundLine@BaseEngine@@QAEXHHHHI@Z 00421170 f i BouncingBallMain.obj
 0001:000201e0       ?DrawBackgroundPolygon@BaseEngine@@QAEXNNNNNNNNNNNNNNI@Z 004211e0 f i BouncingBallMain.obj
 0001:000202e0       ?DrawBackgroundPolygon@BaseEngine@@QAEXNNNNNNNNNNNNNNNNI@Z 004212e0 f i BouncingBallMain.obj
 0001:00020420       ?DrawBackgroundTriangle@BaseEngine@@QAEXHHHHHHI@Z 00421420 f i BouncingBallMain.obj
 0001:000204b0       ?DrawBackgroundVerticalSidedRegion@BaseEngine@@QAEXNNNNNNI@Z 004214b0 f i BouncingBallMain.obj
 0001:00020540       ?SetSize@TileManager@@QAEXHH@Z 00421540 f i BouncingBallMain.obj
 0001:000205f0       ??0Demo1Main@@QAE@XZ       004215f0 f   Demo1Main.obj
 0001:00020610       ??1Demo1Main@@UAE@XZ       00421610 f   Demo1Main.obj
 0001:00020630       ?SetupBackgroundBuffer@Demo1Main@@UAEXXZ 00421630 f   Demo1Main.obj
 0001:00020670       ??_GDemo1Main@@UAEPAXI@Z   00421670 f i Demo1Main.obj
 0001:00020670       ??_EDemo1Main@@UAEPAXI@Z   00421670 f i Demo1Main.obj
 0001:000206b0       ??0Demo2Main@@QAE@XZ       004216b0 f   Demo2Main.obj
 0001:00020720       ??1Demo2Main@@UAE@XZ       00421720 f   Demo2Main.obj
 0001:00020750       ?SetupBackgroundBuffer@Demo2Main@@UAEXXZ 00421750 f   Demo2Main.obj
 0001:00020800       ?InitialiseObjects@Demo2Main@@UAEHXZ 00421800 f   Demo2Main.obj
 0001:000208d0       ?DrawStringsUnderneath@Demo2Main@@UAEXXZ 004218d0 f   Demo2Main.obj
 0001:00020910       ?GameAction@Demo2Main@@UAEXXZ 00421910 f   Demo2Main.obj
 0001:00020950       ?MouseDown@Demo2Main@@UAEXHHH@Z 00421950 f   Demo2Main.obj
 0001:00020960       ?KeyDown@Demo2Main@@UAEXH@Z 00421960 f   Demo2Main.obj
 0001:00020a40       ??_EDemo2Main@@UAEPAXI@Z   00421a40 f i Demo2Main.obj
 0001:00020a40       ??_GDemo2Main@@UAEPAXI@Z   00421a40 f i Demo2Main.obj
 0001:00020a80       ?IsTimeToAct@BaseEngine@@QBE_NXZ 00421a80 f i Demo2Main.obj
 0001:00020ac0       ??0Demo2Object@@QAE@PAVDemo2Main@@@Z 00421ac0 f   Demo2Object.obj
 0001:00020bd0       ??1Demo2Object@@UAE@XZ     00421bd0 f   Demo2Object.obj
 0001:00020bf0       ?Draw@Demo2Object@@UAEXXZ  00421bf0 f   Demo2Object.obj
 0001:00020c50       ?DoUpdate@Demo2Object@@UAEXH@Z 00421c50 f   Demo2Object.obj
 0001:00020dc0       ??_GDemo2Object@@UAEPAXI@Z 00421dc0 f i Demo2Object.obj
 0001:00020dc0       ??_EDemo2Object@@UAEPAXI@Z 00421dc0 f i Demo2Object.obj
 0001:00020e00       ?DrawForegroundOval@BaseEngine@@QAEXHHHHI@Z 00421e00 f i Demo2Object.obj
 0001:00020e40       ??0Demo2TileManager@@QAE@XZ 00421e40 f   Demo2TileManager.obj
 0001:00020e70       ??1Demo2TileManager@@QAE@XZ 00421e70 f   Demo2TileManager.obj
 0001:00020e90       ?DrawTileAt@Demo2TileManager@@UAEXPAVBaseEngine@@PAUSDL_Surface@@HHHH@Z 00421e90 f   Demo2TileManager.obj
 0001:00020f20       ??0Demo3Main@@QAE@XZ       00421f20 f   Demo3Main.obj
 0001:00020f90       ??1Demo3Main@@UAE@XZ       00421f90 f   Demo3Main.obj
 0001:00020fc0       ?SetupBackgroundBuffer@Demo3Main@@UAEXXZ 00421fc0 f   Demo3Main.obj
 0001:00021140       ?InitialiseObjects@Demo3Main@@UAEHXZ 00422140 f   Demo3Main.obj
 0001:00021340       ?DrawStringsUnderneath@Demo3Main@@UAEXXZ 00422340 f   Demo3Main.obj
 0001:00021380       ?GameAction@Demo3Main@@UAEXXZ 00422380 f   Demo3Main.obj
 0001:000213c0       ?MouseDown@Demo3Main@@UAEXHHH@Z 004223c0 f   Demo3Main.obj
 0001:000213d0       ?KeyDown@Demo3Main@@UAEXH@Z 004223d0 f   Demo3Main.obj
 0001:00021530       ??_EDemo3Main@@UAEPAXI@Z   00422530 f i Demo3Main.obj
 0001:00021530       ??_GDemo3Main@@UAEPAXI@Z   00422530 f i Demo3Main.obj
 0001:00021570       ??0Demo3Object@@QAE@PAVDemo3Main@@HH@Z 00422570 f   Demo3Object.obj
 0001:00021670       ??1Demo3Object@@UAE@XZ     00422670 f   Demo3Object.obj
 0001:00021690       ?Draw@Demo3Object@@UAEXXZ  00422690 f   Demo3Object.obj
 0001:00021700       ?DoUpdate@Demo3Object@@UAEXH@Z 00422700 f   Demo3Object.obj
 0001:000219f0       ??_EDemo3Object@@UAEPAXI@Z 004229f0 f i Demo3Object.obj
 0001:000219f0       ??_GDemo3Object@@UAEPAXI@Z 004229f0 f i Demo3Object.obj
 0001:00021a30       ?GetTileManager@Demo3Main@@QAEAAVDemo3TileManager@@XZ 00422a30 f i Demo3Object.obj
 0001:00021a50       ?GetXDiffForDirection@Demo3Object@@QAEHH@Z 00422a50 f i Demo3Object.obj
 0001:00021ac0       ?GetYDiffForDirection@Demo3Object@@QAEHH@Z 00422ac0 f i Demo3Object.obj
 0001:00021b30       ??0Demo3ObjectFinished@@QAE@PAVDemo3Main@@HH@Z 00422b30 f   Demo3ObjectFinished.obj
 0001:00021c30       ??1Demo3ObjectFinished@@UAE@XZ 00422c30 f   Demo3ObjectFinished.obj
 0001:00021c50       ?Draw@Demo3ObjectFinished@@UAEXXZ 00422c50 f   Demo3ObjectFinished.obj
 0001:00021d00       ?DoUpdate@Demo3ObjectFinished@@UAEXH@Z 00422d00 f   Demo3ObjectFinished.obj
 0001:00022130       ??_EDemo3ObjectFinished@@UAEPAXI@Z 00423130 f i Demo3ObjectFinished.obj
 0001:00022130       ??_GDemo3ObjectFinished@@UAEPAXI@Z 00423130 f i Demo3ObjectFinished.obj
 0001:00022170       ?GetXDiffForDirection@Demo3ObjectFinished@@QAEHH@Z 00423170 f i Demo3ObjectFinished.obj
 0001:000221e0       ?GetYDiffForDirection@Demo3ObjectFinished@@QAEHH@Z 004231e0 f i Demo3ObjectFinished.obj
 0001:00022250       ??0Demo3TileManager@@QAE@XZ 00423250 f   Demo3TileManager.obj
 0001:00022280       ??1Demo3TileManager@@QAE@XZ 00423280 f   Demo3TileManager.obj
 0001:000222a0       ?DrawTileAt@Demo3TileManager@@UBEXPAVBaseEngine@@PAUSDL_Surface@@HHHH@Z 004232a0 f   Demo3TileManager.obj
 0001:000224a0       ??0Demo4Main@@QAE@XZ       004234a0 f   Demo4Main.obj
 0001:00022510       ??1Demo4Main@@UAE@XZ       00423510 f   Demo4Main.obj
 0001:00022540       ?SetupBackgroundBuffer@Demo4Main@@UAEXXZ 00423540 f   Demo4Main.obj
 0001:00022730       ?InitialiseObjects@Demo4Main@@UAEHXZ 00423730 f   Demo4Main.obj
 0001:00022930       ?DrawStringsUnderneath@Demo4Main@@UAEXXZ 00423930 f   Demo4Main.obj
 0001:00022a00       ?GameAction@Demo4Main@@UAEXXZ 00423a00 f   Demo4Main.obj
 0001:00022a60       ?MouseDown@Demo4Main@@UAEXHHH@Z 00423a60 f   Demo4Main.obj
 0001:00022a70       ?KeyDown@Demo4Main@@UAEXH@Z 00423a70 f   Demo4Main.obj
 0001:00022b70       ?UndrawObjects@Demo4Main@@UAEXXZ 00423b70 f   Demo4Main.obj
 0001:00022b90       ?DrawObjects@Demo4Main@@UAEXXZ 00423b90 f   Demo4Main.obj
 0001:00022d80       ??_EDemo4Main@@UAEPAXI@Z   00423d80 f i Demo4Main.obj
 0001:00022d80       ??_GDemo4Main@@UAEPAXI@Z   00423d80 f i Demo4Main.obj
 0001:00022dc0       ?IncreaseTimeOffset@BaseEngine@@QAEXH@Z 00423dc0 f i Demo4Main.obj
 0001:00022df0       ??0Demo4Object@@QAE@PAVDemo4Main@@HH@Z 00423df0 f   Demo4Object.obj
 0001:00022ef0       ??1Demo4Object@@UAE@XZ     00423ef0 f   Demo4Object.obj
 0001:00022f10       ?Draw@Demo4Object@@UAEXXZ  00423f10 f   Demo4Object.obj
 0001:00022fd0       ?DoUpdate@Demo4Object@@UAEXH@Z 00423fd0 f   Demo4Object.obj
 0001:00023610       ??_GDemo4Object@@UAEPAXI@Z 00424610 f i Demo4Object.obj
 0001:00023610       ??_EDemo4Object@@UAEPAXI@Z 00424610 f i Demo4Object.obj
 0001:00023650       ?GetTileManager@Demo4Main@@QAEAAVDemo4TileManager@@XZ 00424650 f i Demo4Object.obj
 0001:00023670       ?GetXDiffForDirection@Demo4Object@@QAEHH@Z 00424670 f i Demo4Object.obj
 0001:000236e0       ?GetYDiffForDirection@Demo4Object@@QAEHH@Z 004246e0 f i Demo4Object.obj
 0001:00023750       ??0Demo4TileManager@@QAE@XZ 00424750 f   Demo4TileManager.obj
 0001:00023780       ??1Demo4TileManager@@QAE@XZ 00424780 f   Demo4TileManager.obj
 0001:000237a0       ?DrawTileAt@Demo4TileManager@@UBEXPAVBaseEngine@@PAUSDL_Surface@@HHHH@Z 004247a0 f   Demo4TileManager.obj
 0001:0002399a       _SDL_GetMouseState         0042499a f   SDL2:SDL2.dll
 0001:000239a0       _SDL_GetError              004249a0 f   SDL2:SDL2.dll
 0001:000239a6       _SDL_CreateRGBSurface      004249a6 f   SDL2:SDL2.dll
 0001:000239ac       _SDL_FreeSurface           004249ac f   SDL2:SDL2.dll
 0001:000239b2       _SDL_LockSurface           004249b2 f   SDL2:SDL2.dll
 0001:000239b8       _SDL_UnlockSurface         004249b8 f   SDL2:SDL2.dll
 0001:000239be       _SDL_FillRect              004249be f   SDL2:SDL2.dll
 0001:000239c4       _SDL_UpperBlit             004249c4 f   SDL2:SDL2.dll
 0001:000239ca       _SDL_CreateWindow          004249ca f   SDL2:SDL2.dll
 0001:000239d0       _SDL_PollEvent             004249d0 f   SDL2:SDL2.dll
 0001:000239d6       _SDL_CreateRenderer        004249d6 f   SDL2:SDL2.dll
 0001:000239dc       _SDL_CreateTexture         004249dc f   SDL2:SDL2.dll
 0001:000239e2       _SDL_UpdateTexture         004249e2 f   SDL2:SDL2.dll
 0001:000239e8       _SDL_RenderCopy            004249e8 f   SDL2:SDL2.dll
 0001:000239ee       _SDL_RenderPresent         004249ee f   SDL2:SDL2.dll
 0001:000239f4       _SDL_GetTicks              004249f4 f   SDL2:SDL2.dll
 0001:000239fa       _SDL_Delay                 004249fa f   SDL2:SDL2.dll
 0001:00023a00       _SDL_Init                  00424a00 f   SDL2:SDL2.dll
 0001:00023a06       _SDL_Quit                  00424a06 f   SDL2:SDL2.dll
 0001:00023a0c       _SDL_ShowCursor            00424a0c f   SDL2:SDL2.dll
 0001:00023a12       _IMG_Load                  00424a12 f   SDL2_image:SDL2_image.dll
 0001:00023a18       _TTF_Init                  00424a18 f   SDL2_ttf:SDL2_ttf.dll
 0001:00023a1e       _TTF_RenderText_Solid      00424a1e f   SDL2_ttf:SDL2_ttf.dll
 0001:00023a24       _TTF_Quit                  00424a24 f   SDL2_ttf:SDL2_ttf.dll
 0001:00023a2a       _TTF_OpenFont              00424a2a f   SDL2_ttf:SDL2_ttf.dll
 0001:00023a30       _TTF_CloseFont             00424a30 f   SDL2_ttf:SDL2_ttf.dll
 0001:00023a36       ?_Xlength_error@std@@YAXPBD@Z 00424a36 f   msvcprt:MSVCP140.dll
 0001:00023a3c       ?_Xout_of_range@std@@YAXPBD@Z 00424a3c f   msvcprt:MSVCP140.dll
 0001:00023a42       ??0_Lockit@std@@QAE@H@Z    00424a42 f   msvcprt:MSVCP140.dll
 0001:00023a48       ??1_Lockit@std@@QAE@XZ     00424a48 f   msvcprt:MSVCP140.dll
 0001:00023a4e       ??0_Fac_node@std@@QAE@PAU01@PAV_Facet_base@1@@Z 00424a4e f i msvcprt:locale0_implib.obj
 0001:00023a67       ??1_Fac_node@std@@QAE@XZ   00424a67 f i msvcprt:locale0_implib.obj
 0001:00023add       ??1_Fac_tidy_reg_t@std@@QAE@XZ 00424add f i msvcprt:locale0_implib.obj
 0001:00023b0d       ??_G_Fac_node@std@@QAEPAXI@Z 00424b0d f i msvcprt:locale0_implib.obj
 0001:00023b37       ?_Facet_Register@std@@YAXPAV_Facet_base@1@@Z 00424b37 f   msvcprt:locale0_implib.obj
 0001:00023b70       ??Bid@locale@std@@QAEIXZ   00424b70 f   msvcprt:MSVCP140.dll
 0001:00023b76       ?_Getgloballocale@locale@std@@CAPAV_Locimp@12@XZ 00424b76 f   msvcprt:MSVCP140.dll
 0001:00023b7c       ?always_noconv@codecvt_base@std@@QBE_NXZ 00424b7c f   msvcprt:MSVCP140.dll
 0001:00023b82       ?in@?$codecvt@DDU_Mbstatet@@@std@@QBEHAAU_Mbstatet@@PBD1AAPBDPAD3AAPAD@Z 00424b82 f   msvcprt:MSVCP140.dll
 0001:00023b88       ?out@?$codecvt@DDU_Mbstatet@@@std@@QBEHAAU_Mbstatet@@PBD1AAPBDPAD3AAPAD@Z 00424b88 f   msvcprt:MSVCP140.dll
 0001:00023b8e       ?unshift@?$codecvt@DDU_Mbstatet@@@std@@QBEHAAU_Mbstatet@@PAD1AAPAD@Z 00424b8e f   msvcprt:MSVCP140.dll
 0001:00023b94       ?_Getcat@?$codecvt@DDU_Mbstatet@@@std@@SAIPAPBVfacet@locale@2@PBV42@@Z 00424b94 f   msvcprt:MSVCP140.dll
 0001:00023b9a       ?good@ios_base@std@@QBE_NXZ 00424b9a f   msvcprt:MSVCP140.dll
 0001:00023ba0       ??0?$basic_streambuf@DU?$char_traits@D@std@@@std@@IAE@XZ 00424ba0 f   msvcprt:MSVCP140.dll
 0001:00023ba6       ??1?$basic_streambuf@DU?$char_traits@D@std@@@std@@UAE@XZ 00424ba6 f   msvcprt:MSVCP140.dll
 0001:00023bac       ?getloc@?$basic_streambuf@DU?$char_traits@D@std@@@std@@QBE?AVlocale@2@XZ 00424bac f   msvcprt:MSVCP140.dll
 0001:00023bb2       ?eback@?$basic_streambuf@DU?$char_traits@D@std@@@std@@IBEPADXZ 00424bb2 f   msvcprt:MSVCP140.dll
 0001:00023bb8       ?gptr@?$basic_streambuf@DU?$char_traits@D@std@@@std@@IBEPADXZ 00424bb8 f   msvcprt:MSVCP140.dll
 0001:00023bbe       ?pptr@?$basic_streambuf@DU?$char_traits@D@std@@@std@@IBEPADXZ 00424bbe f   msvcprt:MSVCP140.dll
 0001:00023bc4       ?egptr@?$basic_streambuf@DU?$char_traits@D@std@@@std@@IBEPADXZ 00424bc4 f   msvcprt:MSVCP140.dll
 0001:00023bca       ?setg@?$basic_streambuf@DU?$char_traits@D@std@@@std@@IAEXPAD00@Z 00424bca f   msvcprt:MSVCP140.dll
 0001:00023bd0       ?epptr@?$basic_streambuf@DU?$char_traits@D@std@@@std@@IBEPADXZ 00424bd0 f   msvcprt:MSVCP140.dll
 0001:00023bd6       ?_Gndec@?$basic_streambuf@DU?$char_traits@D@std@@@std@@IAEPADXZ 00424bd6 f   msvcprt:MSVCP140.dll
 0001:00023bdc       ?_Gninc@?$basic_streambuf@DU?$char_traits@D@std@@@std@@IAEPADXZ 00424bdc f   msvcprt:MSVCP140.dll
 0001:00023be2       ?_Pninc@?$basic_streambuf@DU?$char_traits@D@std@@@std@@IAEPADXZ 00424be2 f   msvcprt:MSVCP140.dll
 0001:00023be8       ?_Init@?$basic_streambuf@DU?$char_traits@D@std@@@std@@IAEXXZ 00424be8 f   msvcprt:MSVCP140.dll
 0001:00023bee       ?_Init@?$basic_streambuf@DU?$char_traits@D@std@@@std@@IAEXPAPAD0PAH001@Z 00424bee f   msvcprt:MSVCP140.dll
 0001:00023bf4       ??1?$basic_ios@DU?$char_traits@D@std@@@std@@UAE@XZ 00424bf4 f   msvcprt:MSVCP140.dll
 0001:00023bfa       ?setstate@?$basic_ios@DU?$char_traits@D@std@@@std@@QAEXH_N@Z 00424bfa f   msvcprt:MSVCP140.dll
 0001:00023c00       ??0?$basic_ios@DU?$char_traits@D@std@@@std@@IAE@XZ 00424c00 f   msvcprt:MSVCP140.dll
 0001:00023c06       ??0?$basic_istream@DU?$char_traits@D@std@@@std@@QAE@PAV?$basic_streambuf@DU?$char_traits@D@std@@@1@_N@Z 00424c06 f   msvcprt:MSVCP140.dll
 0001:00023c0c       ??1?$basic_istream@DU?$char_traits@D@std@@@std@@UAE@XZ 00424c0c f   msvcprt:MSVCP140.dll
 0001:00023c12       ?_Fiopen@std@@YAPAU_iobuf@@PBDHH@Z 00424c12 f   msvcprt:MSVCP140.dll
 0001:00023c18       ?showmanyc@?$basic_streambuf@DU?$char_traits@D@std@@@std@@MAE_JXZ 00424c18 f   msvcprt:MSVCP140.dll
 0001:00023c1e       ?xsgetn@?$basic_streambuf@DU?$char_traits@D@std@@@std@@MAE_JPAD_J@Z 00424c1e f   msvcprt:MSVCP140.dll
 0001:00023c24       ?xsputn@?$basic_streambuf@DU?$char_traits@D@std@@@std@@MAE_JPBD_J@Z 00424c24 f   msvcprt:MSVCP140.dll
 0001:00023c2a       ?uncaught_exceptions@std@@YAHXZ 00424c2a f   msvcprt:MSVCP140.dll
 0001:00023c30       ?_Xinvalid_argument@std@@YAXPBD@Z 00424c30 f   msvcprt:MSVCP140.dll
 0001:00023c36       ??Bios_base@std@@QBE_NXZ   00424c36 f   msvcprt:MSVCP140.dll
 0001:00023c3c       ?flags@ios_base@std@@QBEHXZ 00424c3c f   msvcprt:MSVCP140.dll
 0001:00023c42       ?width@ios_base@std@@QBE_JXZ 00424c42 f   msvcprt:MSVCP140.dll
 0001:00023c48       ?width@ios_base@std@@QAE_J_J@Z 00424c48 f   msvcprt:MSVCP140.dll
 0001:00023c4e       ?sbumpc@?$basic_streambuf@DU?$char_traits@D@std@@@std@@QAEHXZ 00424c4e f   msvcprt:MSVCP140.dll
 0001:00023c54       ?sgetc@?$basic_streambuf@DU?$char_traits@D@std@@@std@@QAEHXZ 00424c54 f   msvcprt:MSVCP140.dll
 0001:00023c5a       ?snextc@?$basic_streambuf@DU?$char_traits@D@std@@@std@@QAEHXZ 00424c5a f   msvcprt:MSVCP140.dll
 0001:00023c60       ?sputc@?$basic_streambuf@DU?$char_traits@D@std@@@std@@QAEHD@Z 00424c60 f   msvcprt:MSVCP140.dll
 0001:00023c66       ?sputn@?$basic_streambuf@DU?$char_traits@D@std@@@std@@QAE_JPBD_J@Z 00424c66 f   msvcprt:MSVCP140.dll
 0001:00023c6c       ?tie@?$basic_ios@DU?$char_traits@D@std@@@std@@QBEPAV?$basic_ostream@DU?$char_traits@D@std@@@2@XZ 00424c6c f   msvcprt:MSVCP140.dll
 0001:00023c72       ?rdbuf@?$basic_ios@DU?$char_traits@D@std@@@std@@QBEPAV?$basic_streambuf@DU?$char_traits@D@std@@@2@XZ 00424c72 f   msvcprt:MSVCP140.dll
 0001:00023c78       ?fill@?$basic_ios@DU?$char_traits@D@std@@@std@@QBEDXZ 00424c78 f   msvcprt:MSVCP140.dll
 0001:00023c7e       ?widen@?$basic_ios@DU?$char_traits@D@std@@@std@@QBEDD@Z 00424c7e f   msvcprt:MSVCP140.dll
 0001:00023c84       ?_Osfx@?$basic_ostream@DU?$char_traits@D@std@@@std@@QAEXXZ 00424c84 f   msvcprt:MSVCP140.dll
 0001:00023c8a       ??6?$basic_ostream@DU?$char_traits@D@std@@@std@@QAEAAV01@I@Z 00424c8a f   msvcprt:MSVCP140.dll
 0001:00023c90       ?flush@?$basic_ostream@DU?$char_traits@D@std@@@std@@QAEAAV12@XZ 00424c90 f   msvcprt:MSVCP140.dll
 0001:00023c96       ?_Ipfx@?$basic_istream@DU?$char_traits@D@std@@@std@@QAE_N_N@Z 00424c96 f   msvcprt:MSVCP140.dll
 0001:00023f69       ?configure_argv@__scrt_narrow_argv_policy@@SAHXZ 00424f69 f i MSVCRT:exe_main.obj
 0001:00023f79       ?initialize_environment@__scrt_narrow_environment_policy@@SAHXZ 00424f79 f i MSVCRT:exe_main.obj
 0001:00023fab       ?set_app_type@__scrt_main_policy@@SAXXZ 00424fab f i MSVCRT:exe_main.obj
 0001:00023fb6       ?set_commode@__scrt_file_policy@@SAXXZ 00424fb6 f i MSVCRT:exe_main.obj
 0001:00023fcb       ?set_fmode@__scrt_file_policy@@SAXXZ 00424fcb f i MSVCRT:exe_main.obj
 0001:00023fdb       _mainCRTStartup            00424fdb f   MSVCRT:exe_main.obj
 0001:00023fe7       ??2@YAPAXI@Z               00424fe7 f   MSVCRT:new_scalar.obj
 0001:00024023       ??3@YAXPAXI@Z              00425023 f   MSVCRT:delete_scalar_size.obj
 0001:00024034       ??_V@YAXPAX@Z              00425034 f   MSVCRT:delete_array.obj
 0001:00024039       @__security_check_cookie@4 00425039 f   MSVCRT:_secchk_.obj
 0001:0002404e       ??1type_info@@UAE@XZ       0042504e f   MSVCRT:std_type_info_static.obj
 0001:00024055       ??_Etype_info@@UAEPAXI@Z   00425055 f i MSVCRT:std_type_info_static.obj
 0001:00024055       ??_Gtype_info@@UAEPAXI@Z   00425055 f i MSVCRT:std_type_info_static.obj
 0001:00024080       ??_U@YAPAXI@Z              00425080 f   MSVCRT:new_array.obj
 0001:0002408b       ??$__crt_fast_decode_pointer@PAP6AXXZ@@YAPAP6AXXZQAP6AXXZ@Z 0042508b f i MSVCRT:utility.obj
 0001:000240a4       ??$__crt_fast_encode_pointer@PAP6AXXZ@@YAPAP6AXXZQAP6AXXZ@Z 004250a4 f i MSVCRT:utility.obj
 0001:000240c8       ?__crt_rotate_pointer_value@@YAIIH@Z 004250c8 f i MSVCRT:utility.obj
 0001:0002416c       _NtCurrentTeb              0042516c f i MSVCRT:utility.obj
 0001:00024173       ___scrt_acquire_startup_lock 00425173 f   MSVCRT:utility.obj
 0001:000241b5       ___scrt_dllmain_after_initialize_c 004251b5 f   MSVCRT:utility.obj
 0001:000241ea       ___scrt_dllmain_before_initialize_c 004251ea f   MSVCRT:utility.obj
 0001:000241fb       ___scrt_dllmain_crt_thread_attach 004251fb f   MSVCRT:utility.obj
 0001:00024221       ___scrt_dllmain_crt_thread_detach 00425221 f   MSVCRT:utility.obj
 0001:00024231       ___scrt_dllmain_exception_filter 00425231 f   MSVCRT:utility.obj
 0001:00024270       ___scrt_dllmain_uninitialize_c 00425270 f   MSVCRT:utility.obj
 0001:0002429b       ___scrt_dllmain_uninitialize_critical 0042529b f   MSVCRT:utility.obj
 0001:000242ab       ___scrt_initialize_crt     004252ab f   MSVCRT:utility.obj
 0001:000242f2       ___scrt_initialize_onexit_tables 004252f2 f   MSVCRT:utility.obj
 0001:000243c6       ___scrt_is_nonwritable_in_current_image 004253c6 f   MSVCRT:utility.obj
 0001:00024472       ___scrt_release_startup_lock 00425472 f   MSVCRT:utility.obj
 0001:00024496       ___scrt_uninitialize_crt   00425496 f   MSVCRT:utility.obj
 0001:000244c8       __onexit                   004254c8 f   MSVCRT:utility.obj
 0001:00024511       _at_quick_exit             00425511 f   MSVCRT:utility.obj
 0001:0002454e       _atexit                    0042554e f   MSVCRT:utility.obj
 0001:00024568       @_guard_check_icall@4      00425568 f i MSVCRT:checkcfg.obj
 0001:000245d0       ___security_init_cookie    004255d0 f   MSVCRT:gs_support.obj
 0001:0002462d       __matherr                  0042562d f   MSVCRT:matherr.obj
 0001:00024630       __get_startup_argv_mode    00425630 f   MSVCRT:argv_mode.obj
 0001:00024634       __get_startup_commit_mode  00425634 f   MSVCRT:commit_mode.obj
 0001:00024637       __get_startup_file_mode    00425637 f   MSVCRT:file_mode.obj
 0001:0002463d       __get_startup_new_mode     0042563d f   MSVCRT:new_mode.obj
 0001:00024640       __get_startup_thread_locale_mode 00425640 f   MSVCRT:thread_locale.obj
 0001:00024643       ?__scrt_initialize_type_info@@YAXXZ 00425643 f   MSVCRT:tncleanup.obj
 0001:00024652       ?__scrt_uninitialize_type_info@@YAXXZ 00425652 f   MSVCRT:tncleanup.obj
 0001:00024661       __should_initialize_environment 00425661 f   MSVCRT:env_mode.obj
 0001:00024664       __initialize_default_precision 00425664 f   MSVCRT:default_precision.obj
 0001:0002468d       __initialize_invalid_parameter_handler 0042568d f   MSVCRT:invalid_parameter_handler.obj
 0001:0002468e       __initialize_denormal_control 0042568e f   MSVCRT:denormal_control.obj
 0001:0002468f       ___local_stdio_scanf_options 0042568f f i MSVCRT:default_local_stdio_options.obj
 0001:00024695       ___scrt_initialize_default_local_stdio_options 00425695 f   MSVCRT:default_local_stdio_options.obj
 0001:000246b9       ___scrt_is_user_matherr_present 004256b9 f   MSVCRT:matherr_detection.obj
 0001:000246c8       ___scrt_get_dyn_tls_init_callback 004256c8 f   MSVCRT:dyn_tls_init.obj
 0001:000246ce       ___scrt_get_dyn_tls_dtor_callback 004256ce f   MSVCRT:dyn_tls_dtor.obj
 0001:000246d4       ___scrt_fastfail           004256d4 f   MSVCRT:utility_desktop.obj
 0001:00024837       ___scrt_get_show_window_mode 00425837 f   MSVCRT:utility_desktop.obj
 0001:00024876       ___scrt_initialize_winrt   00425876 f   MSVCRT:utility_desktop.obj
 0001:00024879       ___scrt_is_managed_app     00425879 f   MSVCRT:utility_desktop.obj
 0001:000248ce       ___scrt_set_unhandled_exception_filter 004258ce f   MSVCRT:utility_desktop.obj
 0001:000248dd       ___scrt_unhandled_exception_filter@4 004258dd f   MSVCRT:utility_desktop.obj
 0001:0002492e       __crt_debugger_hook        0042592e f   MSVCRT:utility_desktop.obj
 0001:00024938       __RTC_Initialize           00425938 f   MSVCRT:_initsect_.obj
 0001:0002496d       __RTC_Terminate            0042596d f   MSVCRT:_initsect_.obj
 0001:000249b0       __SEH_prolog4              004259b0 f   MSVCRT:_sehprolg4_.obj
 0001:000249f6       __SEH_epilog4              004259f6 f   MSVCRT:_sehprolg4_.obj
 0001:00024a21       __except_handler4          00425a21 f   MSVCRT:_chandler4gs_.obj
 0001:00024a4c       ??0bad_alloc@std@@AAE@QBD@Z 00425a4c f i MSVCRT:throw_bad_alloc.obj
 0001:00024a70       ??0bad_alloc@std@@QAE@ABV01@@Z 00425a70 f i MSVCRT:throw_bad_alloc.obj
 0001:00024a91       ??0bad_alloc@std@@QAE@XZ   00425a91 f i MSVCRT:throw_bad_alloc.obj
 0001:00024aaf       ??0bad_array_new_length@std@@QAE@ABV01@@Z 00425aaf f i MSVCRT:throw_bad_alloc.obj
 0001:00024ad0       ??0bad_array_new_length@std@@QAE@XZ 00425ad0 f i MSVCRT:throw_bad_alloc.obj
 0001:00024aee       ??1bad_alloc@std@@UAE@XZ   00425aee f i MSVCRT:throw_bad_alloc.obj
 0001:00024b03       ??1bad_array_new_length@std@@UAE@XZ 00425b03 f i MSVCRT:throw_bad_alloc.obj
 0001:00024b18       ??_Gbad_alloc@std@@UAEPAXI@Z 00425b18 f i MSVCRT:throw_bad_alloc.obj
 0001:00024b18       ??_Ebad_alloc@std@@UAEPAXI@Z 00425b18 f i MSVCRT:throw_bad_alloc.obj
 0001:00024b50       ??_Ebad_array_new_length@std@@UAEPAXI@Z 00425b50 f i MSVCRT:throw_bad_alloc.obj
 0001:00024b50       ??_Gbad_array_new_length@std@@UAEPAXI@Z 00425b50 f i MSVCRT:throw_bad_alloc.obj
 0001:00024b88       ?__scrt_throw_std_bad_alloc@@YAXXZ 00425b88 f   MSVCRT:throw_bad_alloc.obj
 0001:00024bac       ?__scrt_throw_std_bad_array_new_length@@YAXXZ 00425bac f   MSVCRT:throw_bad_alloc.obj
 0001:00024bd0       ??3@YAXPAX@Z               00425bd0 f   MSVCRT:delete_scalar.obj
 0001:00024bd5       ___raise_securityfailure   00425bd5 f   MSVCRT:gs_report.obj
 0001:00024c07       ___report_gsfailure        00425c07 f   MSVCRT:gs_report.obj
 0001:00024d40       ___report_rangecheckfailure 00425d40 f   MSVCRT:gs_report.obj
 0001:00024d4f       ___report_securityfailure  00425d4f f   MSVCRT:gs_report.obj
 0001:00024e53       ___report_securityfailureEx 00425e53 f   MSVCRT:gs_report.obj
 0001:00024fae       ___isa_available_init      00425fae f   MSVCRT:_cpu_disp_.obj
 0001:000251ad       ___scrt_is_ucrt_dll_in_use 004261ad f   MSVCRT:ucrt_detection.obj
 0001:000251bc       @_guard_check_icall_nop@4  004261bc f i MSVCRT:guard_support.obj
 0001:000251bd       _ReadNoFence               004261bd f i MSVCRT:guard_support.obj
 0001:000251c9       _ReadPointerNoFence        004261c9 f i MSVCRT:guard_support.obj
 0001:000251d5       __guard_icall_checks_enforced 004261d5 f i MSVCRT:guard_support.obj
 0001:000251eb       _memcpy                    004261eb f   vcruntime:VCRUNTIME140.dll
 0001:000251f1       _memmove                   004261f1 f   vcruntime:VCRUNTIME140.dll
 0001:000251f7       ___CxxFrameHandler3        004261f7 f   vcruntime:VCRUNTIME140.dll
 0001:000251fd       ___RTDynamicCast           004261fd f   vcruntime:VCRUNTIME140.dll
 0001:00025203       _memset                    00426203 f   vcruntime:VCRUNTIME140.dll
 0001:00025209       ___std_exception_copy      00426209 f   vcruntime:VCRUNTIME140.dll
 0001:0002520f       ___std_exception_destroy   0042620f f   vcruntime:VCRUNTIME140.dll
 0001:00025215       __CxxThrowException@8      00426215 f   vcruntime:VCRUNTIME140.dll
 0001:0002521b       _memchr                    0042621b f   vcruntime:VCRUNTIME140.dll
 0001:00025221       ___std_type_info_destroy_list 00426221 f   vcruntime:VCRUNTIME140.dll
 0001:00025227       __except_handler4_common   00426227 f   vcruntime:VCRUNTIME140.dll
 0001:0002522d       __invalid_parameter_noinfo_noreturn 0042622d f   ucrt:api-ms-win-crt-runtime-l1-1-0.dll
 0001:00025233       _hypot                     00426233 f   ucrt:api-ms-win-crt-math-l1-1-0.dll
 0001:00025239       _strlen                    00426239 f   ucrt:api-ms-win-crt-string-l1-1-0.dll
 0001:0002523f       _srand                     0042623f f   ucrt:api-ms-win-crt-utility-l1-1-0.dll
 0001:00025245       __time64                   00426245 f   ucrt:api-ms-win-crt-time-l1-1-0.dll
 0001:0002524b       _atan                      0042624b f   ucrt:api-ms-win-crt-math-l1-1-0.dll
 0001:00025251       _cos                       00426251 f   ucrt:api-ms-win-crt-math-l1-1-0.dll
 0001:00025257       _sin                       00426257 f   ucrt:api-ms-win-crt-math-l1-1-0.dll
 0001:0002525d       ___acrt_iob_func           0042625d f   ucrt:api-ms-win-crt-stdio-l1-1-0.dll
 0001:00025263       ___stdio_common_vfprintf   00426263 f   ucrt:api-ms-win-crt-stdio-l1-1-0.dll
 0001:00025269       _strcmp                    00426269 f   ucrt:api-ms-win-crt-string-l1-1-0.dll
 0001:0002526f       _strcpy                    0042626f f   ucrt:api-ms-win-crt-string-l1-1-0.dll
 0001:00025275       __invalid_parameter_noinfo 00426275 f   ucrt:api-ms-win-crt-runtime-l1-1-0.dll
 0001:0002527b       __errno                    0042627b f   ucrt:api-ms-win-crt-runtime-l1-1-0.dll
 0001:00025281       __get_stream_buffer_pointers 00426281 f   ucrt:api-ms-win-crt-stdio-l1-1-0.dll
 0001:00025287       _fclose                    00426287 f   ucrt:api-ms-win-crt-stdio-l1-1-0.dll
 0001:0002528d       _fflush                    0042628d f   ucrt:api-ms-win-crt-stdio-l1-1-0.dll
 0001:00025293       _fgetc                     00426293 f   ucrt:api-ms-win-crt-stdio-l1-1-0.dll
 0001:00025299       _fgetpos                   00426299 f   ucrt:api-ms-win-crt-stdio-l1-1-0.dll
 0001:0002529f       _fputc                     0042629f f   ucrt:api-ms-win-crt-stdio-l1-1-0.dll
 0001:000252a5       _fsetpos                   004262a5 f   ucrt:api-ms-win-crt-stdio-l1-1-0.dll
 0001:000252ab       __fseeki64                 004262ab f   ucrt:api-ms-win-crt-stdio-l1-1-0.dll
 0001:000252b1       _fwrite                    004262b1 f   ucrt:api-ms-win-crt-stdio-l1-1-0.dll
 0001:000252b7       _setvbuf                   004262b7 f   ucrt:api-ms-win-crt-stdio-l1-1-0.dll
 0001:000252bd       _ungetc                    004262bd f   ucrt:api-ms-win-crt-stdio-l1-1-0.dll
 0001:000252c3       __lock_file                004262c3 f   ucrt:api-ms-win-crt-filesystem-l1-1-0.dll
 0001:000252c9       __unlock_file              004262c9 f   ucrt:api-ms-win-crt-filesystem-l1-1-0.dll
 0001:000252cf       _rand                      004262cf f   ucrt:api-ms-win-crt-utility-l1-1-0.dll
 0001:000252d5       ___stdio_common_vsprintf   004262d5 f   ucrt:api-ms-win-crt-stdio-l1-1-0.dll
 0001:000252db       __wassert                  004262db f   ucrt:api-ms-win-crt-runtime-l1-1-0.dll
 0001:000252e1       _strtol                    004262e1 f   ucrt:api-ms-win-crt-convert-l1-1-0.dll
 0001:000252e7       _strtoul                   004262e7 f   ucrt:api-ms-win-crt-convert-l1-1-0.dll
 0001:000252ed       __seh_filter_exe           004262ed f   ucrt:api-ms-win-crt-runtime-l1-1-0.dll
 0001:000252f3       __set_app_type             004262f3 f   ucrt:api-ms-win-crt-runtime-l1-1-0.dll
 0001:000252f9       ___setusermatherr          004262f9 f   ucrt:api-ms-win-crt-math-l1-1-0.dll
 0001:000252ff       __configure_narrow_argv    004262ff f   ucrt:api-ms-win-crt-runtime-l1-1-0.dll
 0001:00025305       __initialize_narrow_environment 00426305 f   ucrt:api-ms-win-crt-runtime-l1-1-0.dll
 0001:0002530b       __get_initial_narrow_environment 0042630b f   ucrt:api-ms-win-crt-runtime-l1-1-0.dll
 0001:00025311       __initterm                 00426311 f   ucrt:api-ms-win-crt-runtime-l1-1-0.dll
 0001:00025317       __initterm_e               00426317 f   ucrt:api-ms-win-crt-runtime-l1-1-0.dll
 0001:0002531d       _exit                      0042631d f   ucrt:api-ms-win-crt-runtime-l1-1-0.dll
 0001:00025323       __exit                     00426323 f   ucrt:api-ms-win-crt-runtime-l1-1-0.dll
 0001:00025329       __set_fmode                00426329 f   ucrt:api-ms-win-crt-stdio-l1-1-0.dll
 0001:0002532f       ___p___argc                0042632f f   ucrt:api-ms-win-crt-runtime-l1-1-0.dll
 0001:00025335       ___p___argv                00426335 f   ucrt:api-ms-win-crt-runtime-l1-1-0.dll
 0001:0002533b       __cexit                    0042633b f   ucrt:api-ms-win-crt-runtime-l1-1-0.dll
 0001:00025341       __c_exit                   00426341 f   ucrt:api-ms-win-crt-runtime-l1-1-0.dll
 0001:00025347       __register_thread_local_exe_atexit_callback 00426347 f   ucrt:api-ms-win-crt-runtime-l1-1-0.dll
 0001:0002534d       __configthreadlocale       0042634d f   ucrt:api-ms-win-crt-locale-l1-1-0.dll
 0001:00025353       __set_new_mode             00426353 f   ucrt:api-ms-win-crt-heap-l1-1-0.dll
 0001:00025359       ___p__commode              00426359 f   ucrt:api-ms-win-crt-stdio-l1-1-0.dll
 0001:0002535f       __callnewh                 0042635f f   ucrt:api-ms-win-crt-heap-l1-1-0.dll
 0001:00025365       _malloc                    00426365 f   ucrt:api-ms-win-crt-heap-l1-1-0.dll
 0001:0002536b       __seh_filter_dll           0042636b f   ucrt:api-ms-win-crt-runtime-l1-1-0.dll
 0001:00025371       __initialize_onexit_table  00426371 f   ucrt:api-ms-win-crt-runtime-l1-1-0.dll
 0001:00025377       __register_onexit_function 00426377 f   ucrt:api-ms-win-crt-runtime-l1-1-0.dll
 0001:0002537d       __execute_onexit_table     0042637d f   ucrt:api-ms-win-crt-runtime-l1-1-0.dll
 0001:00025383       __crt_atexit               00426383 f   ucrt:api-ms-win-crt-runtime-l1-1-0.dll
 0001:00025389       __crt_at_quick_exit        00426389 f   ucrt:api-ms-win-crt-runtime-l1-1-0.dll
 0001:0002538f       __controlfp_s              0042638f f   ucrt:api-ms-win-crt-runtime-l1-1-0.dll
 0001:00025395       _terminate                 00426395 f   ucrt:api-ms-win-crt-runtime-l1-1-0.dll
 0001:0002539b       _free                      0042639b f   ucrt:api-ms-win-crt-heap-l1-1-0.dll
 0001:00025520       _WinMain@16                00426520 f   SDL2main:SDL_windows_main.obj
 0001:000256a0       _main                      004266a0 f   SDL2main:SDL_windows_main.obj
 0001:000256c0       _wmain                     004266c0 f   SDL2main:SDL_windows_main.obj
 0001:00025765       _QueryPerformanceCounter@4 00426765 f   kernel32:KERNEL32.dll
 0001:0002576b       _GetCurrentProcessId@0     0042676b f   kernel32:KERNEL32.dll
 0001:00025771       _GetCurrentThreadId@0      00426771 f   kernel32:KERNEL32.dll
 0001:00025777       _GetSystemTimeAsFileTime@4 00426777 f   kernel32:KERNEL32.dll
 0001:0002577d       _InitializeSListHead@4     0042677d f   kernel32:KERNEL32.dll
 0001:00025783       _IsDebuggerPresent@0       00426783 f   kernel32:KERNEL32.dll
 0001:00025789       _UnhandledExceptionFilter@4 00426789 f   kernel32:KERNEL32.dll
 0001:0002578f       _SetUnhandledExceptionFilter@4 0042678f f   kernel32:KERNEL32.dll
 0001:00025795       _GetStartupInfoW@4         00426795 f   kernel32:KERNEL32.dll
 0001:0002579b       _IsProcessorFeaturePresent@4 0042679b f   kernel32:KERNEL32.dll
 0001:000257a1       _GetModuleHandleW@4        004267a1 f   kernel32:KERNEL32.dll
 0001:000257a7       _GetCurrentProcess@0       004267a7 f   kernel32:KERNEL32.dll
 0001:000257ad       _TerminateProcess@8        004267ad f   kernel32:KERNEL32.dll
 0001:000257b3       _GetCommandLineW@0         004267b3 f   kernel32:KERNEL32.dll
 0001:000257b9       _SDL_malloc                004267b9 f   SDL2:SDL2.dll
 0001:000257bf       _SDL_free                  004267bf f   SDL2:SDL2.dll
 0001:000257c5       _SDL_isspace               004267c5 f   SDL2:SDL2.dll
 0001:000257cb       _SDL_wcslen                004267cb f   SDL2:SDL2.dll
 0001:000257d1       _SDL_iconv_string          004267d1 f   SDL2:SDL2.dll
 0001:000257d7       _SDL_SetMainReady          004267d7 f   SDL2:SDL2.dll
 0001:000257dd       _SDL_ShowSimpleMessageBox  004267dd f   SDL2:SDL2.dll
 0001:000257e3       ___scrt_stub_for_acrt_initialize 004267e3 f   MSVCRT:ucrt_stubs.obj
 0001:000257e3       ___vcrt_initialize         004267e3 f   MSVCRT:ucrt_stubs.obj
 0001:000257e3       ___acrt_initialize         004267e3 f   MSVCRT:ucrt_stubs.obj
 0001:000257e6       ___vcrt_thread_attach      004267e6 f   MSVCRT:ucrt_stubs.obj
 0001:000257e6       ___acrt_thread_attach      004267e6 f   MSVCRT:ucrt_stubs.obj
 0001:000257e6       ___scrt_stub_for_acrt_thread_attach 004267e6 f   MSVCRT:ucrt_stubs.obj
 0001:000257e9       ___vcrt_thread_detach      004267e9 f   MSVCRT:ucrt_stubs.obj
 0001:000257e9       ___acrt_thread_detach      004267e9 f   MSVCRT:ucrt_stubs.obj
 0001:000257e9       ___scrt_stub_for_acrt_thread_detach 004267e9 f   MSVCRT:ucrt_stubs.obj
 0001:000257ec       ___acrt_uninitialize       004267ec f   MSVCRT:ucrt_stubs.obj
 0001:000257ec       ___vcrt_uninitialize       004267ec f   MSVCRT:ucrt_stubs.obj
 0001:000257ec       ___scrt_stub_for_acrt_uninitialize 004267ec f   MSVCRT:ucrt_stubs.obj
 0001:000257ef       ___scrt_stub_for_acrt_uninitialize_critical 004267ef f   MSVCRT:ucrt_stubs.obj
 0001:000257ef       ___vcrt_uninitialize_critical 004267ef f   MSVCRT:ucrt_stubs.obj
 0001:000257ef       ___acrt_uninitialize_critical 004267ef f   MSVCRT:ucrt_stubs.obj
 0001:000257f2       __is_c_termination_complete 004267f2 f   MSVCRT:ucrt_stubs.obj
 0001:000257f2       ___scrt_stub_for_is_c_termination_complete 004267f2 f   MSVCRT:ucrt_stubs.obj
 0001:00025800       ??0Creature@@QAE@PAVBaseEngine@@ABV?$basic_string@DU?$char_traits@D@std@@V?$allocator@D@2@@std@@IABU?$pair@HH@3@IIH_N3@Z 00426800 f   Creature.obj
 0001:00025930       ?Draw@Creature@@UAEXXZ     00426930 f   Creature.obj
 0001:000259b0       ?DoUpdate@Creature@@UAEXH@Z 004269b0 f   Creature.obj
 0001:00025c10       ?GetBoundingBox@Creature@@QBE?AU?$pair@U?$pair@HH@std@@U12@@std@@XZ 00426c10 f   Creature.obj
 0001:00025c90       ?IsAlive@Creature@@QBE_NXZ 00426c90 f   Creature.obj
 0001:00025cc0       ?Kill@Creature@@QAEXXZ     00426cc0 f   Creature.obj
 0001:00025cf0       ?GetMaxHealth@Creature@@QBEIXZ 00426cf0 f   Creature.obj
 0001:00025d10       ?GetHealth@Creature@@QBEIXZ 00426d10 f   Creature.obj
 0001:00025d30       ?SetHealth@Creature@@QAEXI@Z 00426d30 f   Creature.obj
 0001:00025d50       ?SetSpeed@Creature@@QAEXI@Z 00426d50 f   Creature.obj
 0001:00025d70       ?GetPosition@Creature@@QBE?AU?$pair@HH@std@@XZ 00426d70 f   Creature.obj
 0001:00025da0       ?SetPosition@Creature@@QAEXABU?$pair@HH@std@@@Z 00426da0 f   Creature.obj
 0001:00025dd0       ?GetTarget@Creature@@QBE?AU?$pair@HH@std@@XZ 00426dd0 f   Creature.obj
 0001:00025e00       ?SetTarget@Creature@@QAEXU?$pair@HH@std@@@Z 00426e00 f   Creature.obj
 0001:00025e20       ?GetAggroRange@Creature@@QBEIXZ 00426e20 f   Creature.obj
 0001:00025e40       ?SetAggroRange@Creature@@QAEXI@Z 00426e40 f   Creature.obj
 0001:00025e60       ?SetActivationTime@Creature@@QAEXH@Z 00426e60 f   Creature.obj
 0001:00025e80       ?IsActive@Creature@@QBE_NXZ 00426e80 f   Creature.obj
 0001:00025eb0       ?IsFleeing@Creature@@QBE_NXZ 00426eb0 f   Creature.obj
 0001:00025ed0       ?SetFleeing@Creature@@QAEX_N@Z 00426ed0 f   Creature.obj
 0001:00025ef0       ?HandleMovement@Creature@@IAEXH@Z 00426ef0 f   Creature.obj
 0002:00000000       ___xc_a                    0042c000     MSVCRT:initializers.obj
 0002:0000030c       ___xc_z                    0042c30c     MSVCRT:initializers.obj
 0002:00000410       ___xi_a                    0042c410     MSVCRT:initializers.obj
 0002:0000071c       ___xi_z                    0042c71c     MSVCRT:initializers.obj
 0002:00000820       ___xp_a                    0042c820     MSVCRT:initializers.obj
 0002:00000924       ___xp_z                    0042c924     MSVCRT:initializers.obj
 0002:00000a28       ___xt_a                    0042ca28     MSVCRT:initializers.obj
 0002:00000b2c       ___xt_z                    0042cb2c     MSVCRT:initializers.obj
 0002:00000c54       ??_7Boss@@6B@              0042cc54     Boss.obj
 0002:00000c6c       ??_C@_0BA@JFNIOLAK@string?5too?5long?$AA@ 0042cc6c     Boss.obj
 0002:00000c80       __real@4034000000000000    0042cc80     Boss.obj
 0002:00000c94       ??_7ControlledObject@@6B@  0042cc94     ControlledObject.obj
 0002:00000cac       ??_C@_0BI@CFPLBAOH@invalid?5string?5position?$AA@ 0042ccac     ControlledObject.obj
 0002:00000ccc       ??_7Creature@@6B@          0042cccc     Creature.obj
 0002:00000d20       ??_7Cursor@@6B@            0042cd20     Cursor.obj
 0002:00000d38       __real@40000000            0042cd38     Cursor.obj
 0002:00000d40       ??_7HealthBar@@6B@         0042cd40     HealthBar.obj
 0002:00000d58       __real@00000000            0042cd58     HealthBar.obj
 0002:00000d5c       __real@40a00000            0042cd5c     HealthBar.obj
 0002:00000d60       __real@42c80000            0042cd60     HealthBar.obj
 0002:00000d70       __xmm@41f00000000000000000000000000000 0042cd70     Creature.obj
 0002:00000dcc       ??_7HUD@@6B@               0042cdcc     HUD.obj
 0002:00000e18       ??_7TileManager@@6B@       0042ce18     mainfunction.obj
 0002:00000e28       ?MY_PI@BaseEngine@@2NB     0042ce28     BaseEngine.obj
 0002:00000efc       ??_7BaseEngine@@6B@        0042cefc     BaseEngine.obj
 0002:00000f68       __real@3fe0000000000000    0042cf68     BaseEngine.obj
 0002:00000f78       __real@3fe0c152382d7365    0042cf78     BaseEngine.obj
 0002:00000f88       __real@3ff0000000000000    0042cf88     BaseEngine.obj
 0002:00000f98       __real@3ff8000000000000    0042cf98     BaseEngine.obj
 0002:00000fa8       __real@3ff921fb54442d18    0042cfa8     BaseEngine.obj
 0002:00000fb8       __real@4000000000000000    0042cfb8     BaseEngine.obj
 0002:00000fc8       __real@4008000000000000    0042cfc8     BaseEngine.obj
 0002:00000fd8       __real@400921fb54442d18    0042cfd8     BaseEngine.obj
 0002:00000fe8       __real@400f6a7a2955385e    0042cfe8     BaseEngine.obj
 0002:00000ff8       __real@4010000000000000    0042cff8     BaseEngine.obj
 0002:00001008       __real@401921fb54442d18    0042d008     BaseEngine.obj
 0002:00001018       ??_7DisplayableObject@@6B@ 0042d018     DisplayableObject.obj
 0002:0000106c       ??_C@_0BI@GMOFELCF@Free?5font?3?5?$CFd?5point?5?$CFs?6?$AA@ 0042d06c     FontManager.obj
 0002:00001088       __real@3f50624dd2f1a9fc    0042d088     JPGImage.obj
 0002:00001098       __real@4059000000000000    0042d098     JPGImage.obj
 0002:000010a8       __real@406fe00000000000    0042d0a8     JPGImage.obj
 0002:000010d0       ??_7Missile@@6B@           0042d0d0     Missile.obj
 0002:000010ec       ??_7Player@@6B@            0042d0ec     Player.obj
 0002:00001158       ??_7exception@std@@6B@     0042d158     PsyhshEngine.obj
 0002:00001164       ??_C@_0BC@EOODALEL@Unknown?5exception?$AA@ 0042d164     PsyhshEngine.obj
 0002:00001180       ??_7bad_cast@std@@6B@      0042d180     PsyhshEngine.obj
 0002:0000118c       ??_C@_08EPJLHIJG@bad?5cast?$AA@ 0042d18c     PsyhshEngine.obj
 0002:0000119c       ??_7PsyhshEngine@@6B@      0042d19c     PsyhshEngine.obj
 0002:00001208       ??_7?$basic_filebuf@DU?$char_traits@D@std@@@std@@6B@ 0042d208     PsyhshEngine.obj
 0002:00001254       ??_7?$basic_ifstream@DU?$char_traits@D@std@@@std@@6B@ 0042d254     PsyhshEngine.obj
 0002:0000125c       ??_8?$basic_ifstream@DU?$char_traits@D@std@@@std@@7B@ 0042d25c     PsyhshEngine.obj
 0002:00001268       ??_C@_0BD@OLBABOEK@vector?$DMT?$DO?5too?5long?$AA@ 0042d268     PsyhshEngine.obj
 0002:000012b8       ??_7PsyhshTileManager@@6B@ 0042d2b8     PsyhshTileManager.obj
 0002:000012c8       ??_C@_0BG@BBKNOMOH@invalid?5map?$DMK?0?5T?$DO?5key?$AA@ 0042d2c8     PsyhshTileManager.obj
 0002:000012e4       ??_C@_0BE@JONHPENG@map?1set?$DMT?$DO?5too?5long?$AA@ 0042d2e4     PsyhshTileManager.obj
 0002:00001360       ??_C@_1KA@HGHMHEOE@?$AAc?$AA?3?$AA?2?$AAu?$AAs?$AAe?$AAr?$AAs?$AA?2?$AAh?$AAa?$AAr?$AAr?$AAa?$AAn?$AAd?$AA?2?$AAd?$AAo?$AAw?$AAn?$AAl?$AAo?$AAa?$AAd?$AAs?$AA?2?$AAc?$AAp?$AAp?$AAc?$AAo@ 0042d360     SimpleDemo.obj
 0002:00001420       ??_C@_1BA@GEGIDABA@?$AAi?$AAX?$AA?5?$AA?$DO?$AA?$DN?$AA?5?$AA0?$AA?$AA@ 0042d420     SimpleDemo.obj
 0002:00001434       ??_C@_1CI@LOLMHJMA@?$AAi?$AAX?$AA?5?$AA?$DM?$AA?5?$AAm?$AA_?$AAi?$AAW?$AAi?$AAn?$AAd?$AAo?$AAw?$AAW?$AAi?$AAd?$AAt?$AAh?$AA?$AA@ 0042d434     SimpleDemo.obj
 0002:00001464       ??_C@_1BA@PJGHNBGG@?$AAi?$AAY?$AA?5?$AA?$DO?$AA?$DN?$AA?5?$AA0?$AA?$AA@ 0042d464     SimpleDemo.obj
 0002:00001478       ??_C@_1CK@JLNMHNIF@?$AAi?$AAY?$AA?5?$AA?$DM?$AA?5?$AAm?$AA_?$AAi?$AAW?$AAi?$AAn?$AAd?$AAo?$AAw?$AAH?$AAe?$AAi?$AAg?$AAh?$AAt?$AA?$AA@ 0042d478     SimpleDemo.obj
 0002:000014b0       ??_C@_1EI@HDGFGJMN@?$AAi?$AAX?$AA?5?$AA?$DM?$AA?5?$AAG?$AAe?$AAt?$AAI?$AAn?$AAt?$AAs?$AAP?$AAe?$AAr?$AAW?$AAi?$AAn?$AAd?$AAo?$AAw?$AAR?$AAo?$AAw?$AA?$CI?$AA?5?$AAp?$AAT?$AAa?$AAr?$AAg?$AAe@ 0042d4b0     SimpleDemo.obj
 0002:0000150c       ??_7SimpleShape@@6B@       0042d50c     SimpleDemo.obj
 0002:00001524       ??_C@_0BB@HGEFLDGP@Position?5?$CFf?0?5?$CFf?6?$AA@ 0042d524     SimpleDemo.obj
 0002:00001538       __real@0000000000000000    0042d538     SimpleDemo.obj
 0002:00001548       __real@3f747ae147ae147b    0042d548     SimpleDemo.obj
 0002:00001558       __real@4004000000000000    0042d558     SimpleDemo.obj
 0002:00001570       __xmm@80000000000000008000000000000000 0042d570     SimpleDemo.obj
 0002:00001588       ??_7SineObject@@6B@        0042d588     SineObject.obj
 0002:000015a0       __real@4024000000000000    0042d5a0     SineObject.obj
 0002:000015b0       __real@406f400000000000    0042d5b0     SineObject.obj
 0002:000016f4       ??_C@_0BG@HGEDEDEC@invalid?5stoi?5argument?$AA@ 0042d6f4     Stage.obj
 0002:00001710       ??_C@_0BL@MFFNMGGC@stoi?5argument?5out?5of?5range?$AA@ 0042d710     Stage.obj
 0002:00001730       ??_C@_0BM@NMJKDPPO@invalid?5vector?$DMT?$DO?5subscript?$AA@ 0042d730     Stage.obj
 0002:00001758       ??_7BouncingBall@@6B@      0042d758     BouncingBall.obj
 0002:00001774       ??_7BouncingBall1@@6B@     0042d774     BouncingBall.obj
 0002:00001790       ??_7BouncingBall2@@6B@     0042d790     BouncingBall.obj
 0002:000017a8       __real@3f847ae147ae147b    0042d7a8     BouncingBall.obj
 0002:000017e0       __real@3fe999999999999a    0042d7e0     BouncingBallMain.obj
 0002:000017f0       __real@3ff199999999999a    0042d7f0     BouncingBallMain.obj
 0002:00001800       __real@3ff3333333333333    0042d800     BouncingBallMain.obj
 0002:00001810       __real@4049000000000000    0042d810     BouncingBallMain.obj
 0002:00001820       __real@4062c00000000000    0042d820     BouncingBallMain.obj
 0002:00001830       __real@4066800000000000    0042d830     BouncingBallMain.obj
 0002:00001840       __real@4069000000000000    0042d840     BouncingBallMain.obj
 0002:00001850       __real@4071300000000000    0042d850     BouncingBallMain.obj
 0002:00001860       __real@4072c00000000000    0042d860     BouncingBallMain.obj
 0002:00001870       __real@4074500000000000    0042d870     BouncingBallMain.obj
 0002:00001880       __real@4075e00000000000    0042d880     BouncingBallMain.obj
 0002:00001890       __real@4079000000000000    0042d890     BouncingBallMain.obj
 0002:000018a0       __real@4079a00000000000    0042d8a0     BouncingBallMain.obj
 0002:000018b0       __real@407c200000000000    0042d8b0     BouncingBallMain.obj
 0002:000018c0       __real@407f400000000000    0042d8c0     BouncingBallMain.obj
 0002:000018d0       __real@4081300000000000    0042d8d0     BouncingBallMain.obj
 0002:000018e0       __real@4082c00000000000    0042d8e0     BouncingBallMain.obj
 0002:000018f0       __real@4084500000000000    0042d8f0     BouncingBallMain.obj
 0002:00001900       __real@4087700000000000    0042d900     BouncingBallMain.obj
 0002:00001910       ??_7Demo1Main@@6B@         0042d910     Demo1Main.obj
 0002:0000198c       ??_7Demo2Main@@6B@         0042d98c     Demo2Main.obj
 0002:000019f8       ??_7Demo2Object@@6B@       0042d9f8     Demo2Object.obj
 0002:00001a14       ??_7Demo2TileManager@@6B@  0042da14     Demo2TileManager.obj
 0002:00001b24       ??_7Demo3Main@@6B@         0042db24     Demo3Main.obj
 0002:00001b90       ??_7Demo3Object@@6B@       0042db90     Demo3Object.obj
 0002:00001bac       ??_7Demo3ObjectFinished@@6B@ 0042dbac     Demo3ObjectFinished.obj
 0002:00001bc8       ??_7Demo3TileManager@@6B@  0042dbc8     Demo3TileManager.obj
 0002:00001d14       ??_7Demo4Main@@6B@         0042dd14     Demo4Main.obj
 0002:00001d80       ??_7Demo4Object@@6B@       0042dd80     Demo4Object.obj
 0002:00001d9c       ??_7Demo4TileManager@@6B@  0042dd9c     Demo4TileManager.obj
 0002:00001db0       ??_7type_info@@6B@         0042ddb0     MSVCRT:std_type_info_static.obj
 0002:00001dbc       ??_7bad_alloc@std@@6B@     0042ddbc     MSVCRT:throw_bad_alloc.obj
 0002:00001dc8       ??_C@_0P@GHFPNOJB@bad?5allocation?$AA@ 0042ddc8     MSVCRT:throw_bad_alloc.obj
 0002:00001de0       ??_7bad_array_new_length@std@@6B@ 0042dde0     MSVCRT:throw_bad_alloc.obj
 0002:00001dec       ??_C@_0BF@KINCDENJ@bad?5array?5new?5length?$AA@ 0042ddec     MSVCRT:throw_bad_alloc.obj
 0002:00001e14       ??_C@_0BJ@HFNMHALN@Out?5of?5memory?5?9?5aborting?$AA@ 0042de14     SDL2main:SDL_windows_main.obj
 0002:00001e34       ??_C@_0M@HFFOIJBL@Fatal?5Error?$AA@ 0042de34     SDL2main:SDL_windows_main.obj
 0002:00001e44       ??_C@_08NBDJLNFA@UTF?916LE?$AA@ 0042de44     SDL2main:SDL_windows_main.obj
 0002:00001e50       ??_C@_05EGJIMALK@UTF?98?$AA@ 0042de50     SDL2main:SDL_windows_main.obj
 0002:00001e98       __load_config_used         0042de98     MSVCRT:loadcfg.obj
 0002:000020f4       ??_R4Boss@@6B@             0042e0f4     Boss.obj
 0002:0000210c       ??_R3Boss@@8               0042e10c     Boss.obj
 0002:00002120       ??_R2Boss@@8               0042e120     Boss.obj
 0002:00002134       ??_R1A@?0A@EA@Boss@@8      0042e134     Boss.obj
 0002:00002158       ??_R1A@?0A@EA@Creature@@8  0042e158     Boss.obj
 0002:0000217c       ??_R3Creature@@8           0042e17c     Boss.obj
 0002:00002190       ??_R2Creature@@8           0042e190     Boss.obj
 0002:000021a0       ??_R1A@?0A@EA@DisplayableObject@@8 0042e1a0     Boss.obj
 0002:000021c4       ??_R3DisplayableObject@@8  0042e1c4     Boss.obj
 0002:000021d8       ??_R2DisplayableObject@@8  0042e1d8     Boss.obj
 0002:000021e0       ??_R1CM@?0A@EA@Sprite@@8   0042e1e0     Boss.obj
 0002:00002204       ??_R3Sprite@@8             0042e204     Boss.obj
 0002:00002218       ??_R2Sprite@@8             0042e218     Boss.obj
 0002:00002220       ??_R1A@?0A@EA@Sprite@@8    0042e220     Boss.obj
 0002:00002244       ??_R4ControlledObject@@6B@ 0042e244     ControlledObject.obj
 0002:0000225c       ??_R3ControlledObject@@8   0042e25c     ControlledObject.obj
 0002:00002270       ??_R2ControlledObject@@8   0042e270     ControlledObject.obj
 0002:0000227c       ??_R1A@?0A@EA@ControlledObject@@8 0042e27c     ControlledObject.obj
 0002:000022a0       ??_R4Creature@@6B@         0042e2a0     Creature.obj
 0002:000022b8       ??_R4Cursor@@6B@           0042e2b8     Cursor.obj
 0002:000022d0       ??_R3Cursor@@8             0042e2d0     Cursor.obj
 0002:000022e4       ??_R2Cursor@@8             0042e2e4     Cursor.obj
 0002:000022f0       ??_R1A@?0A@EA@Cursor@@8    0042e2f0     Cursor.obj
 0002:00002314       ??_R4HealthBar@@6B@        0042e314     HealthBar.obj
 0002:0000232c       ??_R3HealthBar@@8          0042e32c     HealthBar.obj
 0002:00002340       ??_R2HealthBar@@8          0042e340     HealthBar.obj
 0002:0000234c       ??_R1A@?0A@EA@HealthBar@@8 0042e34c     HealthBar.obj
 0002:00002370       ??_R4HUD@@6B@              0042e370     HUD.obj
 0002:00002388       ??_R3HUD@@8                0042e388     HUD.obj
 0002:0000239c       ??_R2HUD@@8                0042e39c     HUD.obj
 0002:000023a8       ??_R1A@?0A@EA@HUD@@8       0042e3a8     HUD.obj
 0002:000023cc       ??_R4TileManager@@6B@      0042e3cc     mainfunction.obj
 0002:000023e4       ??_R3TileManager@@8        0042e3e4     mainfunction.obj
 0002:000023f8       ??_R2TileManager@@8        0042e3f8     mainfunction.obj
 0002:00002400       ??_R1A@?0A@EA@TileManager@@8 0042e400     mainfunction.obj
 0002:00002424       ??_R4BaseEngine@@6B@       0042e424     BaseEngine.obj
 0002:0000243c       ??_R3BaseEngine@@8         0042e43c     BaseEngine.obj
 0002:00002450       ??_R2BaseEngine@@8         0042e450     BaseEngine.obj
 0002:00002458       ??_R1A@?0A@EA@BaseEngine@@8 0042e458     BaseEngine.obj
 0002:0000247c       ??_R4DisplayableObject@@6B@ 0042e47c     DisplayableObject.obj
 0002:00002494       ??_R4Missile@@6B@          0042e494     Missile.obj
 0002:000024ac       ??_R3Missile@@8            0042e4ac     Missile.obj
 0002:000024c0       ??_R2Missile@@8            0042e4c0     Missile.obj
 0002:000024d4       ??_R1A@?0A@EA@Missile@@8   0042e4d4     Missile.obj
 0002:000024f8       ??_R4Player@@6B@           0042e4f8     Player.obj
 0002:00002510       ??_R3Player@@8             0042e510     Player.obj
 0002:00002524       ??_R2Player@@8             0042e524     Player.obj
 0002:00002538       ??_R1A@?0A@EA@Player@@8    0042e538     Player.obj
 0002:0000255c       ??_R1DA@?0A@EN@Sprite@@8   0042e55c     Player.obj
 0002:00002580       ??_R4?$basic_filebuf@DU?$char_traits@D@std@@@std@@6B@ 0042e580     PsyhshEngine.obj
 0002:00002598       ??_R3?$basic_filebuf@DU?$char_traits@D@std@@@std@@8 0042e598     PsyhshEngine.obj
 0002:000025ac       ??_R2?$basic_filebuf@DU?$char_traits@D@std@@@std@@8 0042e5ac     PsyhshEngine.obj
 0002:000025b8       ??_R1A@?0A@EA@?$basic_filebuf@DU?$char_traits@D@std@@@std@@8 0042e5b8     PsyhshEngine.obj
 0002:000025dc       ??_R1A@?0A@EA@?$basic_streambuf@DU?$char_traits@D@std@@@std@@8 0042e5dc     PsyhshEngine.obj
 0002:00002600       ??_R3?$basic_streambuf@DU?$char_traits@D@std@@@std@@8 0042e600     PsyhshEngine.obj
 0002:00002614       ??_R2?$basic_streambuf@DU?$char_traits@D@std@@@std@@8 0042e614     PsyhshEngine.obj
 0002:0000261c       ??_R4?$basic_ifstream@DU?$char_traits@D@std@@@std@@6B@ 0042e61c     PsyhshEngine.obj
 0002:00002634       ??_R3?$basic_ifstream@DU?$char_traits@D@std@@@std@@8 0042e634     PsyhshEngine.obj
 0002:00002648       ??_R2?$basic_ifstream@DU?$char_traits@D@std@@@std@@8 0042e648     PsyhshEngine.obj
 0002:00002664       ??_R1A@?0A@EA@?$basic_ifstream@DU?$char_traits@D@std@@@std@@8 0042e664     PsyhshEngine.obj
 0002:00002688       ??_R1A@?0A@EA@?$basic_istream@DU?$char_traits@D@std@@@std@@8 0042e688     PsyhshEngine.obj
 0002:000026ac       ??_R3?$basic_istream@DU?$char_traits@D@std@@@std@@8 0042e6ac     PsyhshEngine.obj
 0002:000026c0       ??_R2?$basic_istream@DU?$char_traits@D@std@@@std@@8 0042e6c0     PsyhshEngine.obj
 0002:000026d4       ??_R1A@A@3FA@?$basic_ios@DU?$char_traits@D@std@@@std@@8 0042e6d4     PsyhshEngine.obj
 0002:000026f8       ??_R3?$basic_ios@DU?$char_traits@D@std@@@std@@8 0042e6f8     PsyhshEngine.obj
 0002:0000270c       ??_R2?$basic_ios@DU?$char_traits@D@std@@@std@@8 0042e70c     PsyhshEngine.obj
 0002:0000271c       ??_R1A@?0A@EA@?$basic_ios@DU?$char_traits@D@std@@@std@@8 0042e71c     PsyhshEngine.obj
 0002:00002740       ??_R1A@?0A@EA@ios_base@std@@8 0042e740     PsyhshEngine.obj
 0002:00002764       ??_R3ios_base@std@@8       0042e764     PsyhshEngine.obj
 0002:00002778       ??_R2ios_base@std@@8       0042e778     PsyhshEngine.obj
 0002:00002784       ??_R17?0A@EA@?$_Iosb@H@std@@8 0042e784     PsyhshEngine.obj
 0002:000027a8       ??_R3?$_Iosb@H@std@@8      0042e7a8     PsyhshEngine.obj
 0002:000027bc       ??_R2?$_Iosb@H@std@@8      0042e7bc     PsyhshEngine.obj
 0002:000027c4       ??_R1A@?0A@EA@?$_Iosb@H@std@@8 0042e7c4     PsyhshEngine.obj
 0002:000027e8       ??_R1A@A@3EA@ios_base@std@@8 0042e7e8     PsyhshEngine.obj
 0002:0000280c       ??_R17A@3EA@?$_Iosb@H@std@@8 0042e80c     PsyhshEngine.obj
 0002:00002830       ??_R4exception@std@@6B@    0042e830     PsyhshEngine.obj
 0002:00002848       ??_R3exception@std@@8      0042e848     PsyhshEngine.obj
 0002:0000285c       ??_R2exception@std@@8      0042e85c     PsyhshEngine.obj
 0002:00002864       ??_R1A@?0A@EA@exception@std@@8 0042e864     PsyhshEngine.obj
 0002:00002888       ??_R4bad_cast@std@@6B@     0042e888     PsyhshEngine.obj
 0002:000028a0       ??_R3bad_cast@std@@8       0042e8a0     PsyhshEngine.obj
 0002:000028b4       ??_R2bad_cast@std@@8       0042e8b4     PsyhshEngine.obj
 0002:000028c0       ??_R1A@?0A@EA@bad_cast@std@@8 0042e8c0     PsyhshEngine.obj
 0002:000028e4       ??_R4PsyhshEngine@@6B@     0042e8e4     PsyhshEngine.obj
 0002:000028fc       ??_R3PsyhshEngine@@8       0042e8fc     PsyhshEngine.obj
 0002:00002910       ??_R2PsyhshEngine@@8       0042e910     PsyhshEngine.obj
 0002:0000291c       ??_R1A@?0A@EA@PsyhshEngine@@8 0042e91c     PsyhshEngine.obj
 0002:00002940       ??_R4PsyhshTileManager@@6B@ 0042e940     PsyhshTileManager.obj
 0002:00002958       ??_R3PsyhshTileManager@@8  0042e958     PsyhshTileManager.obj
 0002:0000296c       ??_R2PsyhshTileManager@@8  0042e96c     PsyhshTileManager.obj
 0002:00002978       ??_R1A@?0A@EA@PsyhshTileManager@@8 0042e978     PsyhshTileManager.obj
 0002:0000299c       ??_R4SimpleShape@@6B@      0042e99c     SimpleDemo.obj
 0002:000029b4       ??_R3SimpleShape@@8        0042e9b4     SimpleDemo.obj
 0002:000029c8       ??_R2SimpleShape@@8        0042e9c8     SimpleDemo.obj
 0002:000029d4       ??_R1A@?0A@EA@SimpleShape@@8 0042e9d4     SimpleDemo.obj
 0002:000029f8       ??_R4SineObject@@6B@       0042e9f8     SineObject.obj
 0002:00002a10       ??_R3SineObject@@8         0042ea10     SineObject.obj
 0002:00002a24       ??_R2SineObject@@8         0042ea24     SineObject.obj
 0002:00002a30       ??_R1A@?0A@EA@SineObject@@8 0042ea30     SineObject.obj
 0002:00002a54       ??_R4BouncingBall@@6B@     0042ea54     BouncingBall.obj
 0002:00002a6c       ??_R3BouncingBall@@8       0042ea6c     BouncingBall.obj
 0002:00002a80       ??_R2BouncingBall@@8       0042ea80     BouncingBall.obj
 0002:00002a8c       ??_R1A@?0A@EA@BouncingBall@@8 0042ea8c     BouncingBall.obj
 0002:00002ab0       ??_R4BouncingBall1@@6B@    0042eab0     BouncingBall.obj
 0002:00002ac8       ??_R3BouncingBall1@@8      0042eac8     BouncingBall.obj
 0002:00002adc       ??_R2BouncingBall1@@8      0042eadc     BouncingBall.obj
 0002:00002aec       ??_R1A@?0A@EA@BouncingBall1@@8 0042eaec     BouncingBall.obj
 0002:00002b10       ??_R4BouncingBall2@@6B@    0042eb10     BouncingBall.obj
 0002:00002b28       ??_R3BouncingBall2@@8      0042eb28     BouncingBall.obj
 0002:00002b3c       ??_R2BouncingBall2@@8      0042eb3c     BouncingBall.obj
 0002:00002b4c       ??_R1A@?0A@EA@BouncingBall2@@8 0042eb4c     BouncingBall.obj
 0002:00002b70       ??_R4Demo1Main@@6B@        0042eb70     Demo1Main.obj
 0002:00002b88       ??_R3Demo1Main@@8          0042eb88     Demo1Main.obj
 0002:00002b9c       ??_R2Demo1Main@@8          0042eb9c     Demo1Main.obj
 0002:00002ba8       ??_R1A@?0A@EA@Demo1Main@@8 0042eba8     Demo1Main.obj
 0002:00002bcc       ??_R4Demo2Main@@6B@        0042ebcc     Demo2Main.obj
 0002:00002be4       ??_R3Demo2Main@@8          0042ebe4     Demo2Main.obj
 0002:00002bf8       ??_R2Demo2Main@@8          0042ebf8     Demo2Main.obj
 0002:00002c04       ??_R1A@?0A@EA@Demo2Main@@8 0042ec04     Demo2Main.obj
 0002:00002c28       ??_R4Demo2Object@@6B@      0042ec28     Demo2Object.obj
 0002:00002c40       ??_R3Demo2Object@@8        0042ec40     Demo2Object.obj
 0002:00002c54       ??_R2Demo2Object@@8        0042ec54     Demo2Object.obj
 0002:00002c60       ??_R1A@?0A@EA@Demo2Object@@8 0042ec60     Demo2Object.obj
 0002:00002c84       ??_R4Demo2TileManager@@6B@ 0042ec84     Demo2TileManager.obj
 0002:00002c9c       ??_R3Demo2TileManager@@8   0042ec9c     Demo2TileManager.obj
 0002:00002cb0       ??_R2Demo2TileManager@@8   0042ecb0     Demo2TileManager.obj
 0002:00002cbc       ??_R1A@?0A@EA@Demo2TileManager@@8 0042ecbc     Demo2TileManager.obj
 0002:00002ce0       ??_R4Demo3Main@@6B@        0042ece0     Demo3Main.obj
 0002:00002cf8       ??_R3Demo3Main@@8          0042ecf8     Demo3Main.obj
 0002:00002d0c       ??_R2Demo3Main@@8          0042ed0c     Demo3Main.obj
 0002:00002d18       ??_R1A@?0A@EA@Demo3Main@@8 0042ed18     Demo3Main.obj
 0002:00002d3c       ??_R4Demo3Object@@6B@      0042ed3c     Demo3Object.obj
 0002:00002d54       ??_R3Demo3Object@@8        0042ed54     Demo3Object.obj
 0002:00002d68       ??_R2Demo3Object@@8        0042ed68     Demo3Object.obj
 0002:00002d74       ??_R1A@?0A@EA@Demo3Object@@8 0042ed74     Demo3Object.obj
 0002:00002d98       ??_R4Demo3ObjectFinished@@6B@ 0042ed98     Demo3ObjectFinished.obj
 0002:00002db0       ??_R3Demo3ObjectFinished@@8 0042edb0     Demo3ObjectFinished.obj
 0002:00002dc4       ??_R2Demo3ObjectFinished@@8 0042edc4     Demo3ObjectFinished.obj
 0002:00002dd0       ??_R1A@?0A@EA@Demo3ObjectFinished@@8 0042edd0     Demo3ObjectFinished.obj
 0002:00002df4       ??_R4Demo3TileManager@@6B@ 0042edf4     Demo3TileManager.obj
 0002:00002e0c       ??_R3Demo3TileManager@@8   0042ee0c     Demo3TileManager.obj
 0002:00002e20       ??_R2Demo3TileManager@@8   0042ee20     Demo3TileManager.obj
 0002:00002e2c       ??_R1A@?0A@EA@Demo3TileManager@@8 0042ee2c     Demo3TileManager.obj
 0002:00002e50       ??_R4Demo4Main@@6B@        0042ee50     Demo4Main.obj
 0002:00002e68       ??_R3Demo4Main@@8          0042ee68     Demo4Main.obj
 0002:00002e7c       ??_R2Demo4Main@@8          0042ee7c     Demo4Main.obj
 0002:00002e88       ??_R1A@?0A@EA@Demo4Main@@8 0042ee88     Demo4Main.obj
 0002:00002eac       ??_R4Demo4Object@@6B@      0042eeac     Demo4Object.obj
 0002:00002ec4       ??_R3Demo4Object@@8        0042eec4     Demo4Object.obj
 0002:00002ed8       ??_R2Demo4Object@@8        0042eed8     Demo4Object.obj
 0002:00002ee4       ??_R1A@?0A@EA@Demo4Object@@8 0042eee4     Demo4Object.obj
 0002:00002f08       ??_R4Demo4TileManager@@6B@ 0042ef08     Demo4TileManager.obj
 0002:00002f20       ??_R3Demo4TileManager@@8   0042ef20     Demo4TileManager.obj
 0002:00002f34       ??_R2Demo4TileManager@@8   0042ef34     Demo4TileManager.obj
 0002:00002f40       ??_R1A@?0A@EA@Demo4TileManager@@8 0042ef40     Demo4TileManager.obj
 0002:00002f64       ??_R4type_info@@6B@        0042ef64     MSVCRT:std_type_info_static.obj
 0002:00002f7c       ??_R3type_info@@8          0042ef7c     MSVCRT:std_type_info_static.obj
 0002:00002f90       ??_R2type_info@@8          0042ef90     MSVCRT:std_type_info_static.obj
 0002:00002f98       ??_R1A@?0A@EA@type_info@@8 0042ef98     MSVCRT:std_type_info_static.obj
 0002:00002fbc       ??_R4bad_alloc@std@@6B@    0042efbc     MSVCRT:throw_bad_alloc.obj
 0002:00002fd4       ??_R3bad_alloc@std@@8      0042efd4     MSVCRT:throw_bad_alloc.obj
 0002:00002fe8       ??_R2bad_alloc@std@@8      0042efe8     MSVCRT:throw_bad_alloc.obj
 0002:00002ff4       ??_R1A@?0A@EA@bad_alloc@std@@8 0042eff4     MSVCRT:throw_bad_alloc.obj
 0002:00003018       ??_R4bad_array_new_length@std@@6B@ 0042f018     MSVCRT:throw_bad_alloc.obj
 0002:00003030       ??_R3bad_array_new_length@std@@8 0042f030     MSVCRT:throw_bad_alloc.obj
 0002:00003044       ??_R2bad_array_new_length@std@@8 0042f044     MSVCRT:throw_bad_alloc.obj
 0002:00003054       ??_R1A@?0A@EA@bad_array_new_length@std@@8 0042f054     MSVCRT:throw_bad_alloc.obj
 0002:000031f0       ___safe_se_handler_table   0042f1f0     <linker-defined>
 0002:00003674       ___rtc_iaa                 0042f674     MSVCRT:_initsect_.obj
 0002:00003778       ___rtc_izz                 0042f778     MSVCRT:_initsect_.obj
 0002:0000387c       ___rtc_taa                 0042f87c     MSVCRT:_initsect_.obj
 0002:00003980       ___rtc_tzz                 0042f980     MSVCRT:_initsect_.obj
 0002:00004438       __CT??_R0?AVexception@std@@@8??0exception@std@@QAE@ABV01@@Z12 00430438     PsyhshEngine.obj
 0002:00004458       __TI2?AVbad_cast@std@@     00430458     PsyhshEngine.obj
 0002:0000446c       __CTA2?AVbad_cast@std@@    0043046c     PsyhshEngine.obj
 0002:0000447c       __CT??_R0?AVbad_cast@std@@@8??0bad_cast@std@@QAE@ABV01@@Z12 0043047c     PsyhshEngine.obj
 0002:00005290       __TI2?AVbad_alloc@std@@    00431290     MSVCRT:throw_bad_alloc.obj
 0002:000052a4       __CTA2?AVbad_alloc@std@@   004312a4     MSVCRT:throw_bad_alloc.obj
 0002:000052b4       __CT??_R0?AVbad_alloc@std@@@8??0bad_alloc@std@@QAE@ABV01@@Z12 004312b4     MSVCRT:throw_bad_alloc.obj
 0002:000052d4       __TI3?AVbad_array_new_length@std@@ 004312d4     MSVCRT:throw_bad_alloc.obj
 0002:000052e8       __CTA3?AVbad_array_new_length@std@@ 004312e8     MSVCRT:throw_bad_alloc.obj
 0002:000052fc       __CT??_R0?AVbad_array_new_length@std@@@8??0bad_array_new_length@std@@QAE@ABV01@@Z12 004312fc     MSVCRT:throw_bad_alloc.obj
 0003:00000000       ___security_cookie         00432000     MSVCRT:gs_cookie.obj
 0003:00000004       ___security_cookie_complement 00432004     MSVCRT:gs_cookie.obj
 0003:0000000c       __fltused                  0043200c     MSVCRT:fltused.obj
 0003:00000010       ___scrt_native_dllmain_reason 00432010     MSVCRT:utility.obj
 0003:00000014       ___scrt_default_matherr    00432014     MSVCRT:matherr.obj
 0003:00000020       ___isa_enabled             00432020     MSVCRT:_cpu_disp_.obj
 0003:00000024       ___scrt_ucrt_dll_is_in_use 00432024     MSVCRT:ucrt_stubs.obj
 0003:00000130       ??_R0?AVBaseEngine@@@8     00432130     Boss.obj
 0003:00000150       ??_R0?AVPsyhshEngine@@@8   00432150     Boss.obj
 0003:00000170       ??_R0?AVBoss@@@8           00432170     Boss.obj
 0003:00000188       ??_R0?AVCreature@@@8       00432188     Boss.obj
 0003:000001a4       ??_R0?AVDisplayableObject@@@8 004321a4     Boss.obj
 0003:000001cc       ??_R0?AVSprite@@@8         004321cc     Boss.obj
 0003:000001e8       ??_R0?AVControlledObject@@@8 004321e8     ControlledObject.obj
 0003:00000210       ??_R0?AVCursor@@@8         00432210     Cursor.obj
 0003:0000022c       ??_R0?AVHealthBar@@@8      0043222c     HealthBar.obj
 0003:00000248       ??_R0?AVHUD@@@8            00432248     HUD.obj
 0003:00000260       ??_R0?AVTileManager@@@8    00432260     mainfunction.obj
 0003:00000280       ??_R0?AVMissile@@@8        00432280     Missile.obj
 0003:0000029c       ??_R0?AVPlayer@@@8         0043229c     Player.obj
 0003:000002b8       ??_R0?AVexception@std@@@8  004322b8     PsyhshEngine.obj
 0003:000002dc       ??_R0?AVbad_cast@std@@@8   004322dc     PsyhshEngine.obj
 0003:000002fc       ??_R0?AV?$basic_filebuf@DU?$char_traits@D@std@@@std@@@8 004322fc     PsyhshEngine.obj
 0003:00000344       ??_R0?AV?$basic_streambuf@DU?$char_traits@D@std@@@std@@@8 00432344     PsyhshEngine.obj
 0003:0000038c       ??_R0?AV?$basic_ifstream@DU?$char_traits@D@std@@@std@@@8 0043238c     PsyhshEngine.obj
 0003:000003d4       ??_R0?AV?$basic_istream@DU?$char_traits@D@std@@@std@@@8 004323d4     PsyhshEngine.obj
 0003:0000041c       ??_R0?AV?$basic_ios@DU?$char_traits@D@std@@@std@@@8 0043241c     PsyhshEngine.obj
 0003:0000045c       ??_R0?AVios_base@std@@@8   0043245c     PsyhshEngine.obj
 0003:0000047c       ??_R0?AV?$_Iosb@H@std@@@8  0043247c     PsyhshEngine.obj
 0003:000004a0       ??_R0?AVout_of_range@std@@@8 004324a0     PsyhshTileManager.obj
 0003:000004c8       ??_R0?AVPsyhshTileManager@@@8 004324c8     PsyhshTileManager.obj
 0003:000004f0       ??_R0?AVSimpleShape@@@8    004324f0     SimpleDemo.obj
 0003:00000510       ??_R0?AVSineObject@@@8     00432510     SineObject.obj
 0003:00000530       ??_R0?AVBouncingBall@@@8   00432530     BouncingBall.obj
 0003:00000550       ??_R0?AVBouncingBall1@@@8  00432550     BouncingBall.obj
 0003:00000574       ??_R0?AVBouncingBall2@@@8  00432574     BouncingBall.obj
 0003:00000598       ??_R0?AVDemo1Main@@@8      00432598     Demo1Main.obj
 0003:000005b4       ??_R0?AVDemo2Main@@@8      004325b4     Demo2Main.obj
 0003:000005d0       ??_R0?AVDemo2Object@@@8    004325d0     Demo2Object.obj
 0003:000005f0       ??_R0?AVDemo2TileManager@@@8 004325f0     Demo2TileManager.obj
 0003:00000618       ??_R0?AVDemo3Main@@@8      00432618     Demo3Main.obj
 0003:00000634       ??_R0?AVDemo3Object@@@8    00432634     Demo3Object.obj
 0003:00000654       ??_R0?AVDemo3ObjectFinished@@@8 00432654     Demo3ObjectFinished.obj
 0003:0000067c       ??_R0?AVDemo3TileManager@@@8 0043267c     Demo3TileManager.obj
 0003:000006a4       ??_R0?AVDemo4Main@@@8      004326a4     Demo4Main.obj
 0003:000006c0       ??_R0?AVDemo4Object@@@8    004326c0     Demo4Object.obj
 0003:000006e0       ??_R0?AVDemo4TileManager@@@8 004326e0     Demo4TileManager.obj
 0003:00000708       ??_R0?AVtype_info@@@8      00432708     MSVCRT:std_type_info_static.obj
 0003:00000724       ??_R0?AVbad_alloc@std@@@8  00432724     MSVCRT:throw_bad_alloc.obj
 0003:00000748       ??_R0?AVbad_array_new_length@std@@@8 00432748     MSVCRT:throw_bad_alloc.obj
 0003:00000898       ?_OptionsStorage@?1??__local_stdio_printf_options@@9@4_KA 00432898     BaseEngine.obj
 0003:000008a4       ?g_iGlobalRotation@ImageData@@1HA 004328a4     JPGImage.obj
 0003:000008a8       ?g_iGlobalCropLeft@ImageData@@1HA 004328a8     JPGImage.obj
 0003:000008ac       ?g_iGlobalCropRight@ImageData@@1HA 004328ac     JPGImage.obj
 0003:000008b0       ?g_iGlobalCropTop@ImageData@@1HA 004328b0     JPGImage.obj
 0003:000008b4       ?g_iGlobalCropBottom@ImageData@@1HA 004328b4     JPGImage.obj
 0003:000008bc       ?_Stinit@?1??_Init@?$basic_filebuf@DU?$char_traits@D@std@@@std@@IAEXPAU_iobuf@@W4_Initfl@23@@Z@4U_Mbstatet@@A 004328bc     PsyhshEngine.obj
 0003:000008c8       ?_Psave@?$_Facetptr@V?$codecvt@DDU_Mbstatet@@@std@@@std@@2PBVfacet@locale@2@B 004328c8     PsyhshEngine.obj
 0003:000008d8       ___scrt_current_native_startup_state 004328d8     MSVCRT:utility.obj
 0003:000008dc       ___scrt_native_startup_lock 004328dc     MSVCRT:utility.obj
 0003:00000900       ?__type_info_root_node@@3U__type_info_node@@A 00432900     MSVCRT:tncleanup.obj
 0003:00000910       ?_OptionsStorage@?1??__local_stdio_scanf_options@@9@4_KA 00432910     MSVCRT:default_local_stdio_options.obj
 0003:0000091c       ___scrt_debugger_hook_flag 0043291c     MSVCRT:utility_desktop.obj
 0003:00000cdc       ___isa_available           00432cdc     MSVCRT:_cpu_disp_.obj
 0003:00000ce0       ___favor                   00432ce0     MSVCRT:_cpu_disp_.obj
 0003:00000ce8       ___dyn_tls_dtor_callback   00432ce8     <common>
 0003:00000cf4       ___dyn_tls_init_callback   00432cf4     <common>
 0004:00000000       __imp__QueryPerformanceCounter@4 00433000     kernel32:KERNEL32.dll
 0004:00000004       __imp__GetCurrentProcessId@0 00433004     kernel32:KERNEL32.dll
 0004:00000008       __imp__GetCurrentThreadId@0 00433008     kernel32:KERNEL32.dll
 0004:0000000c       __imp__GetSystemTimeAsFileTime@4 0043300c     kernel32:KERNEL32.dll
 0004:00000010       __imp__InitializeSListHead@4 00433010     kernel32:KERNEL32.dll
 0004:00000014       __imp__IsDebuggerPresent@0 00433014     kernel32:KERNEL32.dll
 0004:00000018       __imp__UnhandledExceptionFilter@4 00433018     kernel32:KERNEL32.dll
 0004:0000001c       __imp__SetUnhandledExceptionFilter@4 0043301c     kernel32:KERNEL32.dll
 0004:00000020       __imp__GetStartupInfoW@4   00433020     kernel32:KERNEL32.dll
 0004:00000024       __imp__IsProcessorFeaturePresent@4 00433024     kernel32:KERNEL32.dll
 0004:00000028       __imp__GetModuleHandleW@4  00433028     kernel32:KERNEL32.dll
 0004:0000002c       __imp__GetCurrentProcess@0 0043302c     kernel32:KERNEL32.dll
 0004:00000030       __imp__GetCommandLineW@0   00433030     kernel32:KERNEL32.dll
 0004:00000034       __imp__TerminateProcess@8  00433034     kernel32:KERNEL32.dll
 0004:00000038       \177KERNEL32_NULL_THUNK_DATA 00433038     kernel32:KERNEL32.dll
 0004:0000006c       __imp_??6?$basic_ostream@DU?$char_traits@D@std@@@std@@QAEAAV01@I@Z 0043306c     msvcprt:MSVCP140.dll
 0004:00000070       __imp_?_Osfx@?$basic_ostream@DU?$char_traits@D@std@@@std@@QAEXXZ 00433070     msvcprt:MSVCP140.dll
 0004:00000074       __imp_?widen@?$basic_ios@DU?$char_traits@D@std@@@std@@QBEDD@Z 00433074     msvcprt:MSVCP140.dll
 0004:00000078       __imp_?fill@?$basic_ios@DU?$char_traits@D@std@@@std@@QBEDXZ 00433078     msvcprt:MSVCP140.dll
 0004:0000007c       __imp_?rdbuf@?$basic_ios@DU?$char_traits@D@std@@@std@@QBEPAV?$basic_streambuf@DU?$char_traits@D@std@@@2@XZ 0043307c     msvcprt:MSVCP140.dll
 0004:00000080       __imp_?tie@?$basic_ios@DU?$char_traits@D@std@@@std@@QBEPAV?$basic_ostream@DU?$char_traits@D@std@@@2@XZ 00433080     msvcprt:MSVCP140.dll
 0004:00000084       __imp_?sputn@?$basic_streambuf@DU?$char_traits@D@std@@@std@@QAE_JPBD_J@Z 00433084     msvcprt:MSVCP140.dll
 0004:00000088       __imp_?sputc@?$basic_streambuf@DU?$char_traits@D@std@@@std@@QAEHD@Z 00433088     msvcprt:MSVCP140.dll
 0004:0000008c       __imp_?snextc@?$basic_streambuf@DU?$char_traits@D@std@@@std@@QAEHXZ 0043308c     msvcprt:MSVCP140.dll
 0004:00000090       __imp_?sgetc@?$basic_streambuf@DU?$char_traits@D@std@@@std@@QAEHXZ 00433090     msvcprt:MSVCP140.dll
 0004:00000094       __imp_?sbumpc@?$basic_streambuf@DU?$char_traits@D@std@@@std@@QAEHXZ 00433094     msvcprt:MSVCP140.dll
 0004:00000098       __imp_?_Ipfx@?$basic_istream@DU?$char_traits@D@std@@@std@@QAE_N_N@Z 00433098     msvcprt:MSVCP140.dll
 0004:0000009c       __imp_?cerr@std@@3V?$basic_ostream@DU?$char_traits@D@std@@@1@A 0043309c     msvcprt:MSVCP140.dll
 0004:000000a0       __imp_?flush@?$basic_ostream@DU?$char_traits@D@std@@@std@@QAEAAV12@XZ 004330a0     msvcprt:MSVCP140.dll
 0004:000000a4       __imp_?_Xlength_error@std@@YAXPBD@Z 004330a4     msvcprt:MSVCP140.dll
 0004:000000a8       __imp_?_Xout_of_range@std@@YAXPBD@Z 004330a8     msvcprt:MSVCP140.dll
 0004:000000ac       __imp_??0_Lockit@std@@QAE@H@Z 004330ac     msvcprt:MSVCP140.dll
 0004:000000b0       __imp_??1_Lockit@std@@QAE@XZ 004330b0     msvcprt:MSVCP140.dll
 0004:000000b4       __imp_??Bid@locale@std@@QAEIXZ 004330b4     msvcprt:MSVCP140.dll
 0004:000000b8       __imp_?_Getgloballocale@locale@std@@CAPAV_Locimp@12@XZ 004330b8     msvcprt:MSVCP140.dll
 0004:000000bc       __imp_?always_noconv@codecvt_base@std@@QBE_NXZ 004330bc     msvcprt:MSVCP140.dll
 0004:000000c0       __imp_?in@?$codecvt@DDU_Mbstatet@@@std@@QBEHAAU_Mbstatet@@PBD1AAPBDPAD3AAPAD@Z 004330c0     msvcprt:MSVCP140.dll
 0004:000000c4       __imp_?out@?$codecvt@DDU_Mbstatet@@@std@@QBEHAAU_Mbstatet@@PBD1AAPBDPAD3AAPAD@Z 004330c4     msvcprt:MSVCP140.dll
 0004:000000c8       __imp_?unshift@?$codecvt@DDU_Mbstatet@@@std@@QBEHAAU_Mbstatet@@PAD1AAPAD@Z 004330c8     msvcprt:MSVCP140.dll
 0004:000000cc       __imp_?_Getcat@?$codecvt@DDU_Mbstatet@@@std@@SAIPAPBVfacet@locale@2@PBV42@@Z 004330cc     msvcprt:MSVCP140.dll
 0004:000000d0       __imp_?good@ios_base@std@@QBE_NXZ 004330d0     msvcprt:MSVCP140.dll
 0004:000000d4       __imp_??0?$basic_streambuf@DU?$char_traits@D@std@@@std@@IAE@XZ 004330d4     msvcprt:MSVCP140.dll
 0004:000000d8       __imp_??1?$basic_streambuf@DU?$char_traits@D@std@@@std@@UAE@XZ 004330d8     msvcprt:MSVCP140.dll
 0004:000000dc       __imp_?getloc@?$basic_streambuf@DU?$char_traits@D@std@@@std@@QBE?AVlocale@2@XZ 004330dc     msvcprt:MSVCP140.dll
 0004:000000e0       __imp_?eback@?$basic_streambuf@DU?$char_traits@D@std@@@std@@IBEPADXZ 004330e0     msvcprt:MSVCP140.dll
 0004:000000e4       __imp_?gptr@?$basic_streambuf@DU?$char_traits@D@std@@@std@@IBEPADXZ 004330e4     msvcprt:MSVCP140.dll
 0004:000000e8       __imp_?pptr@?$basic_streambuf@DU?$char_traits@D@std@@@std@@IBEPADXZ 004330e8     msvcprt:MSVCP140.dll
 0004:000000ec       __imp_?egptr@?$basic_streambuf@DU?$char_traits@D@std@@@std@@IBEPADXZ 004330ec     msvcprt:MSVCP140.dll
 0004:000000f0       __imp_?setg@?$basic_streambuf@DU?$char_traits@D@std@@@std@@IAEXPAD00@Z 004330f0     msvcprt:MSVCP140.dll
 0004:000000f4       __imp_?epptr@?$basic_streambuf@DU?$char_traits@D@std@@@std@@IBEPADXZ 004330f4     msvcprt:MSVCP140.dll
 0004:000000f8       __imp_?_Gndec@?$basic_streambuf@DU?$char_traits@D@std@@@std@@IAEPADXZ 004330f8     msvcprt:MSVCP140.dll
 0004:000000fc       __imp_?_Gninc@?$basic_streambuf@DU?$char_traits@D@std@@@std@@IAEPADXZ 004330fc     msvcprt:MSVCP140.dll
 0004:00000100       __imp_?_Pninc@?$basic_streambuf@DU?$char_traits@D@std@@@std@@IAEPADXZ 00433100     msvcprt:MSVCP140.dll
 0004:00000104       __imp_?_Init@?$basic_streambuf@DU?$char_traits@D@std@@@std@@IAEXXZ 00433104     msvcprt:MSVCP140.dll
 0004:00000108       __imp_?_Init@?$basic_streambuf@DU?$char_traits@D@std@@@std@@IAEXPAPAD0PAH001@Z 00433108     msvcprt:MSVCP140.dll
 0004:0000010c       __imp_??1?$basic_ios@DU?$char_traits@D@std@@@std@@UAE@XZ 0043310c     msvcprt:MSVCP140.dll
 0004:00000110       __imp_?setstate@?$basic_ios@DU?$char_traits@D@std@@@std@@QAEXH_N@Z 00433110     msvcprt:MSVCP140.dll
 0004:00000114       __imp_??0?$basic_ios@DU?$char_traits@D@std@@@std@@IAE@XZ 00433114     msvcprt:MSVCP140.dll
 0004:00000118       __imp_??0?$basic_istream@DU?$char_traits@D@std@@@std@@QAE@PAV?$basic_streambuf@DU?$char_traits@D@std@@@1@_N@Z 00433118     msvcprt:MSVCP140.dll
 0004:0000011c       __imp_??1?$basic_istream@DU?$char_traits@D@std@@@std@@UAE@XZ 0043311c     msvcprt:MSVCP140.dll
 0004:00000120       __imp_?_Fiopen@std@@YAPAU_iobuf@@PBDHH@Z 00433120     msvcprt:MSVCP140.dll
 0004:00000124       __imp_?showmanyc@?$basic_streambuf@DU?$char_traits@D@std@@@std@@MAE_JXZ 00433124     msvcprt:MSVCP140.dll
 0004:00000128       __imp_?xsgetn@?$basic_streambuf@DU?$char_traits@D@std@@@std@@MAE_JPAD_J@Z 00433128     msvcprt:MSVCP140.dll
 0004:0000012c       __imp_?xsputn@?$basic_streambuf@DU?$char_traits@D@std@@@std@@MAE_JPBD_J@Z 0043312c     msvcprt:MSVCP140.dll
 0004:00000130       __imp_?_BADOFF@std@@3_JB   00433130     msvcprt:MSVCP140.dll
 0004:00000134       __imp_?id@?$codecvt@DDU_Mbstatet@@@std@@2V0locale@2@A 00433134     msvcprt:MSVCP140.dll
 0004:00000138       __imp_?uncaught_exceptions@std@@YAHXZ 00433138     msvcprt:MSVCP140.dll
 0004:0000013c       __imp_?_Xinvalid_argument@std@@YAXPBD@Z 0043313c     msvcprt:MSVCP140.dll
 0004:00000140       __imp_??Bios_base@std@@QBE_NXZ 00433140     msvcprt:MSVCP140.dll
 0004:00000144       __imp_?flags@ios_base@std@@QBEHXZ 00433144     msvcprt:MSVCP140.dll
 0004:00000148       __imp_?width@ios_base@std@@QBE_JXZ 00433148     msvcprt:MSVCP140.dll
 0004:0000014c       __imp_?width@ios_base@std@@QAE_J_J@Z 0043314c     msvcprt:MSVCP140.dll
 0004:00000150       \177MSVCP140_NULL_THUNK_DATA 00433150     msvcprt:MSVCP140.dll
 0004:000001a8       __imp__SDL_free            004331a8     SDL2:SDL2.dll
 0004:000001ac       __imp__SDL_isspace         004331ac     SDL2:SDL2.dll
 0004:000001b0       __imp__SDL_wcslen          004331b0     SDL2:SDL2.dll
 0004:000001b4       __imp__SDL_iconv_string    004331b4     SDL2:SDL2.dll
 0004:000001b8       __imp__SDL_SetMainReady    004331b8     SDL2:SDL2.dll
 0004:000001bc       __imp__SDL_ShowCursor      004331bc     SDL2:SDL2.dll
 0004:000001c0       __imp__SDL_Quit            004331c0     SDL2:SDL2.dll
 0004:000001c4       __imp__SDL_Init            004331c4     SDL2:SDL2.dll
 0004:000001c8       __imp__SDL_Delay           004331c8     SDL2:SDL2.dll
 0004:000001cc       __imp__SDL_GetTicks        004331cc     SDL2:SDL2.dll
 0004:000001d0       __imp__SDL_RenderPresent   004331d0     SDL2:SDL2.dll
 0004:000001d4       __imp__SDL_RenderCopy      004331d4     SDL2:SDL2.dll
 0004:000001d8       __imp__SDL_UpdateTexture   004331d8     SDL2:SDL2.dll
 0004:000001dc       __imp__SDL_malloc          004331dc     SDL2:SDL2.dll
 0004:000001e0       __imp__SDL_CreateTexture   004331e0     SDL2:SDL2.dll
 0004:000001e4       __imp__SDL_CreateRenderer  004331e4     SDL2:SDL2.dll
 0004:000001e8       __imp__SDL_PollEvent       004331e8     SDL2:SDL2.dll
 0004:000001ec       __imp__SDL_CreateWindow    004331ec     SDL2:SDL2.dll
 0004:000001f0       __imp__SDL_UpperBlit       004331f0     SDL2:SDL2.dll
 0004:000001f4       __imp__SDL_FillRect        004331f4     SDL2:SDL2.dll
 0004:000001f8       __imp__SDL_UnlockSurface   004331f8     SDL2:SDL2.dll
 0004:000001fc       __imp__SDL_LockSurface     004331fc     SDL2:SDL2.dll
 0004:00000200       __imp__SDL_FreeSurface     00433200     SDL2:SDL2.dll
 0004:00000204       __imp__SDL_ShowSimpleMessageBox 00433204     SDL2:SDL2.dll
 0004:00000208       __imp__SDL_CreateRGBSurface 00433208     SDL2:SDL2.dll
 0004:0000020c       __imp__SDL_GetError        0043320c     SDL2:SDL2.dll
 0004:00000210       __imp__SDL_GetMouseState   00433210     SDL2:SDL2.dll
 0004:00000214       \177SDL2_NULL_THUNK_DATA   00433214     SDL2:SDL2.dll
 0004:00000254       __imp__IMG_Load            00433254     SDL2_image:SDL2_image.dll
 0004:00000258       \177SDL2_image_NULL_THUNK_DATA 00433258     SDL2_image:SDL2_image.dll
 0004:00000284       __imp__TTF_CloseFont       00433284     SDL2_ttf:SDL2_ttf.dll
 0004:00000288       __imp__TTF_OpenFont        00433288     SDL2_ttf:SDL2_ttf.dll
 0004:0000028c       __imp__TTF_Quit            0043328c     SDL2_ttf:SDL2_ttf.dll
 0004:00000290       __imp__TTF_Init            00433290     SDL2_ttf:SDL2_ttf.dll
 0004:00000294       __imp__TTF_RenderText_Solid 00433294     SDL2_ttf:SDL2_ttf.dll
 0004:00000298       \177SDL2_ttf_NULL_THUNK_DATA 00433298     SDL2_ttf:SDL2_ttf.dll
 0004:000002c8       __imp___except_handler4_common 004332c8     vcruntime:VCRUNTIME140.dll
 0004:000002cc       __imp___CxxThrowException@8 004332cc     vcruntime:VCRUNTIME140.dll
 0004:000002d0       __imp__memchr              004332d0     vcruntime:VCRUNTIME140.dll
 0004:000002d4       __imp____std_type_info_destroy_list 004332d4     vcruntime:VCRUNTIME140.dll
 0004:000002d8       __imp__memcpy              004332d8     vcruntime:VCRUNTIME140.dll
 0004:000002dc       __imp__memmove             004332dc     vcruntime:VCRUNTIME140.dll
 0004:000002e0       __imp____CxxFrameHandler3  004332e0     vcruntime:VCRUNTIME140.dll
 0004:000002e4       __imp____RTDynamicCast     004332e4     vcruntime:VCRUNTIME140.dll
 0004:000002e8       __imp__memset              004332e8     vcruntime:VCRUNTIME140.dll
 0004:000002ec       __imp____std_exception_copy 004332ec     vcruntime:VCRUNTIME140.dll
 0004:000002f0       __imp____std_exception_destroy 004332f0     vcruntime:VCRUNTIME140.dll
 0004:000002f4       \177VCRUNTIME140_NULL_THUNK_DATA 004332f4     vcruntime:VCRUNTIME140.dll
 0004:00000328       __imp__strtoul             00433328     ucrt:api-ms-win-crt-convert-l1-1-0.dll
 0004:0000032c       __imp__strtol              0043332c     ucrt:api-ms-win-crt-convert-l1-1-0.dll
 0004:00000330       \177api-ms-win-crt-convert-l1-1-0_NULL_THUNK_DATA 00433330     ucrt:api-ms-win-crt-convert-l1-1-0.dll
 0004:0000035c       __imp___lock_file          0043335c     ucrt:api-ms-win-crt-filesystem-l1-1-0.dll
 0004:00000360       __imp___unlock_file        00433360     ucrt:api-ms-win-crt-filesystem-l1-1-0.dll
 0004:00000364       \177api-ms-win-crt-filesystem-l1-1-0_NULL_THUNK_DATA 00433364     ucrt:api-ms-win-crt-filesystem-l1-1-0.dll
 0004:00000390       __imp__malloc              00433390     ucrt:api-ms-win-crt-heap-l1-1-0.dll
 0004:00000394       __imp__free                00433394     ucrt:api-ms-win-crt-heap-l1-1-0.dll
 0004:00000398       __imp___set_new_mode       00433398     ucrt:api-ms-win-crt-heap-l1-1-0.dll
 0004:0000039c       __imp___callnewh           0043339c     ucrt:api-ms-win-crt-heap-l1-1-0.dll
 0004:000003a0       \177api-ms-win-crt-heap-l1-1-0_NULL_THUNK_DATA 004333a0     ucrt:api-ms-win-crt-heap-l1-1-0.dll
 0004:000003cc       __imp___configthreadlocale 004333cc     ucrt:api-ms-win-crt-locale-l1-1-0.dll
 0004:000003d0       \177api-ms-win-crt-locale-l1-1-0_NULL_THUNK_DATA 004333d0     ucrt:api-ms-win-crt-locale-l1-1-0.dll
 0004:000003fc       __imp__atan                004333fc     ucrt:api-ms-win-crt-math-l1-1-0.dll
 0004:00000400       __imp__cos                 00433400     ucrt:api-ms-win-crt-math-l1-1-0.dll
 0004:00000404       __imp__sin                 00433404     ucrt:api-ms-win-crt-math-l1-1-0.dll
 0004:00000408       __imp____setusermatherr    00433408     ucrt:api-ms-win-crt-math-l1-1-0.dll
 0004:0000040c       __imp__hypot               0043340c     ucrt:api-ms-win-crt-math-l1-1-0.dll
 0004:00000410       \177api-ms-win-crt-math-l1-1-0_NULL_THUNK_DATA 00433410     ucrt:api-ms-win-crt-math-l1-1-0.dll
 0004:00000440       __imp___exit               00433440     ucrt:api-ms-win-crt-runtime-l1-1-0.dll
 0004:00000444       __imp___invalid_parameter_noinfo 00433444     ucrt:api-ms-win-crt-runtime-l1-1-0.dll
 0004:00000448       __imp____p___argc          00433448     ucrt:api-ms-win-crt-runtime-l1-1-0.dll
 0004:0000044c       __imp____p___argv          0043344c     ucrt:api-ms-win-crt-runtime-l1-1-0.dll
 0004:00000450       __imp___cexit              00433450     ucrt:api-ms-win-crt-runtime-l1-1-0.dll
 0004:00000454       __imp___c_exit             00433454     ucrt:api-ms-win-crt-runtime-l1-1-0.dll
 0004:00000458       __imp___initterm_e         00433458     ucrt:api-ms-win-crt-runtime-l1-1-0.dll
 0004:0000045c       __imp___initterm           0043345c     ucrt:api-ms-win-crt-runtime-l1-1-0.dll
 0004:00000460       __imp___get_initial_narrow_environment 00433460     ucrt:api-ms-win-crt-runtime-l1-1-0.dll
 0004:00000464       __imp___errno              00433464     ucrt:api-ms-win-crt-runtime-l1-1-0.dll
 0004:00000468       __imp___initialize_narrow_environment 00433468     ucrt:api-ms-win-crt-runtime-l1-1-0.dll
 0004:0000046c       __imp___configure_narrow_argv 0043346c     ucrt:api-ms-win-crt-runtime-l1-1-0.dll
 0004:00000470       __imp___seh_filter_dll     00433470     ucrt:api-ms-win-crt-runtime-l1-1-0.dll
 0004:00000474       __imp___initialize_onexit_table 00433474     ucrt:api-ms-win-crt-runtime-l1-1-0.dll
 0004:00000478       __imp___register_onexit_function 00433478     ucrt:api-ms-win-crt-runtime-l1-1-0.dll
 0004:0000047c       __imp___execute_onexit_table 0043347c     ucrt:api-ms-win-crt-runtime-l1-1-0.dll
 0004:00000480       __imp___crt_atexit         00433480     ucrt:api-ms-win-crt-runtime-l1-1-0.dll
 0004:00000484       __imp___crt_at_quick_exit  00433484     ucrt:api-ms-win-crt-runtime-l1-1-0.dll
 0004:00000488       __imp___controlfp_s        00433488     ucrt:api-ms-win-crt-runtime-l1-1-0.dll
 0004:0000048c       __imp__terminate           0043348c     ucrt:api-ms-win-crt-runtime-l1-1-0.dll
 0004:00000490       __imp___set_app_type       00433490     ucrt:api-ms-win-crt-runtime-l1-1-0.dll
 0004:00000494       __imp___invalid_parameter_noinfo_noreturn 00433494     ucrt:api-ms-win-crt-runtime-l1-1-0.dll
 0004:00000498       __imp__exit                00433498     ucrt:api-ms-win-crt-runtime-l1-1-0.dll
 0004:0000049c       __imp___wassert            0043349c     ucrt:api-ms-win-crt-runtime-l1-1-0.dll
 0004:000004a0       __imp___seh_filter_exe     004334a0     ucrt:api-ms-win-crt-runtime-l1-1-0.dll
 0004:000004a4       __imp___register_thread_local_exe_atexit_callback 004334a4     ucrt:api-ms-win-crt-runtime-l1-1-0.dll
 0004:000004a8       \177api-ms-win-crt-runtime-l1-1-0_NULL_THUNK_DATA 004334a8     ucrt:api-ms-win-crt-runtime-l1-1-0.dll
 0004:000004e8       __imp____stdio_common_vfprintf 004334e8     ucrt:api-ms-win-crt-stdio-l1-1-0.dll
 0004:000004ec       __imp____stdio_common_vsprintf 004334ec     ucrt:api-ms-win-crt-stdio-l1-1-0.dll
 0004:000004f0       __imp___set_fmode          004334f0     ucrt:api-ms-win-crt-stdio-l1-1-0.dll
 0004:000004f4       __imp____acrt_iob_func     004334f4     ucrt:api-ms-win-crt-stdio-l1-1-0.dll
 0004:000004f8       __imp__fgetc               004334f8     ucrt:api-ms-win-crt-stdio-l1-1-0.dll
 0004:000004fc       __imp__ungetc              004334fc     ucrt:api-ms-win-crt-stdio-l1-1-0.dll
 0004:00000500       __imp__setvbuf             00433500     ucrt:api-ms-win-crt-stdio-l1-1-0.dll
 0004:00000504       __imp__fwrite              00433504     ucrt:api-ms-win-crt-stdio-l1-1-0.dll
 0004:00000508       __imp___fseeki64           00433508     ucrt:api-ms-win-crt-stdio-l1-1-0.dll
 0004:0000050c       __imp__fsetpos             0043350c     ucrt:api-ms-win-crt-stdio-l1-1-0.dll
 0004:00000510       __imp__fputc               00433510     ucrt:api-ms-win-crt-stdio-l1-1-0.dll
 0004:00000514       __imp__fgetpos             00433514     ucrt:api-ms-win-crt-stdio-l1-1-0.dll
 0004:00000518       __imp___get_stream_buffer_pointers 00433518     ucrt:api-ms-win-crt-stdio-l1-1-0.dll
 0004:0000051c       __imp__fflush              0043351c     ucrt:api-ms-win-crt-stdio-l1-1-0.dll
 0004:00000520       __imp__fclose              00433520     ucrt:api-ms-win-crt-stdio-l1-1-0.dll
 0004:00000524       __imp____p__commode        00433524     ucrt:api-ms-win-crt-stdio-l1-1-0.dll
 0004:00000528       \177api-ms-win-crt-stdio-l1-1-0_NULL_THUNK_DATA 00433528     ucrt:api-ms-win-crt-stdio-l1-1-0.dll
 0004:00000560       __imp__strcpy              00433560     ucrt:api-ms-win-crt-string-l1-1-0.dll
 0004:00000564       __imp__strcmp              00433564     ucrt:api-ms-win-crt-string-l1-1-0.dll
 0004:00000568       __imp__strlen              00433568     ucrt:api-ms-win-crt-string-l1-1-0.dll
 0004:0000056c       \177api-ms-win-crt-string-l1-1-0_NULL_THUNK_DATA 0043356c     ucrt:api-ms-win-crt-string-l1-1-0.dll
 0004:00000598       __imp___time64             00433598     ucrt:api-ms-win-crt-time-l1-1-0.dll
 0004:0000059c       \177api-ms-win-crt-time-l1-1-0_NULL_THUNK_DATA 0043359c     ucrt:api-ms-win-crt-time-l1-1-0.dll
 0004:000005c8       __imp__srand               004335c8     ucrt:api-ms-win-crt-utility-l1-1-0.dll
 0004:000005cc       __imp__rand                004335cc     ucrt:api-ms-win-crt-utility-l1-1-0.dll
 0004:000005d0       \177api-ms-win-crt-utility-l1-1-0_NULL_THUNK_DATA 004335d0     ucrt:api-ms-win-crt-utility-l1-1-0.dll
 0004:000005fc       __IMPORT_DESCRIPTOR_SDL2   004335fc     SDL2:SDL2.dll
 0004:00000610       __IMPORT_DESCRIPTOR_SDL2_image 00433610     SDL2_image:SDL2_image.dll
 0004:00000624       __IMPORT_DESCRIPTOR_SDL2_ttf 00433624     SDL2_ttf:SDL2_ttf.dll
 0004:00000638       __IMPORT_DESCRIPTOR_MSVCP140 00433638     msvcprt:MSVCP140.dll
 0004:0000064c       __IMPORT_DESCRIPTOR_VCRUNTIME140 0043364c     vcruntime:VCRUNTIME140.dll
 0004:00000660       __IMPORT_DESCRIPTOR_api-ms-win-crt-runtime-l1-1-0 00433660     ucrt:api-ms-win-crt-runtime-l1-1-0.dll
 0004:00000674       __IMPORT_DESCRIPTOR_api-ms-win-crt-math-l1-1-0 00433674     ucrt:api-ms-win-crt-math-l1-1-0.dll
 0004:00000688       __IMPORT_DESCRIPTOR_api-ms-win-crt-string-l1-1-0 00433688     ucrt:api-ms-win-crt-string-l1-1-0.dll
 0004:0000069c       __IMPORT_DESCRIPTOR_api-ms-win-crt-utility-l1-1-0 0043369c     ucrt:api-ms-win-crt-utility-l1-1-0.dll
 0004:000006b0       __IMPORT_DESCRIPTOR_api-ms-win-crt-time-l1-1-0 004336b0     ucrt:api-ms-win-crt-time-l1-1-0.dll
 0004:000006c4       __IMPORT_DESCRIPTOR_api-ms-win-crt-stdio-l1-1-0 004336c4     ucrt:api-ms-win-crt-stdio-l1-1-0.dll
 0004:000006d8       __IMPORT_DESCRIPTOR_api-ms-win-crt-filesystem-l1-1-0 004336d8     ucrt:api-ms-win-crt-filesystem-l1-1-0.dll
 0004:000006ec       __IMPORT_DESCRIPTOR_api-ms-win-crt-convert-l1-1-0 004336ec     ucrt:api-ms-win-crt-convert-l1-1-0.dll
 0004:00000700       __IMPORT_DESCRIPTOR_api-ms-win-crt-locale-l1-1-0 00433700     ucrt:api-ms-win-crt-locale-l1-1-0.dll
 0004:00000714       __IMPORT_DESCRIPTOR_api-ms-win-crt-heap-l1-1-0 00433714     ucrt:api-ms-win-crt-heap-l1-1-0.dll
 0004:00000728       __IMPORT_DESCRIPTOR_KERNEL32 00433728     kernel32:KERNEL32.dll
 0004:0000073c       __NULL_IMPORT_DESCRIPTOR   0043373c     SDL2:SDL2.dll
 0005:00000000       ___guard_check_icall_fptr  00436000     MSVCRT:guard_support.obj

 entry point at        0001:000002d5

 Static symbols

 0000:fffc8000       .debug$S                   00400000     msvcprt:MSVCP140.dll
 0000:fffc8000       .debug$S                   00400000     msvcprt:MSVCP140.dll
 0000:fffc8000       .debug$S                   00400000     msvcprt:MSVCP140.dll
 0001:fffff000       __ehhandler$??0?$basic_string@DU?$char_traits@D@std@@V?$allocator@D@2@@std@@QAE@$$QAV01@@Z 00400000 f   PsyhshEngine.obj
 0001:fffff000       __ehhandler$?_Assign_rv_contents_with_alloc_always_equal@?$basic_string@DU?$char_traits@D@std@@V?$allocator@D@2@@std@@QAEX$$QAV12@U?$integral_constant@_N$00@2@@Z 00400000 f   PsyhshEngine.obj
 0000:fffc8000       .debug$S                   00400000     ucrt:api-ms-win-crt-runtime-l1-1-0.dll
 0000:fffc8000       .debug$S                   00400000     msvcprt:MSVCP140.dll
 0000:fffc8000       .debug$S                   00400000     msvcprt:MSVCP140.dll
 0001:fffff000       __unwindfunclet$??0?$basic_string@DU?$char_traits@D@std@@V?$allocator@D@2@@std@@QAE@QBDI@Z$0 00400000 f   PsyhshEngine.obj
 0000:fffc8000       .debug$S                   00400000     msvcprt:MSVCP140.dll
 0000:fffca000       __guard_fids__             00400000     MSVCRT:guard_support.obj
 0002:fffd4000       __unwindtable$??$?0PADX@?$basic_string@DU?$char_traits@D@std@@V?$allocator@D@2@@std@@QAE@PAD0ABV?$allocator@D@1@@Z 00400000     HUD.obj
 0000:fffc8000       .debug$S                   00400000     kernel32:KERNEL32.dll
 0000:fffc8000       .debug$S                   00400000     msvcprt:MSVCP140.dll
 0000:fffc8000       .debug$S                   00400000     msvcprt:MSVCP140.dll
 0000:fffc8000       .debug$S                   00400000     kernel32:KERNEL32.dll
 0002:fffd4000       __ehfuncinfo$?c_str@?$basic_string@DU?$char_traits@D@std@@V?$allocator@D@2@@std@@QBEPBDXZ 00400000     HUD.obj
 0002:fffd4000       __ehfuncinfo$??1?$basic_string@DU?$char_traits@D@std@@V?$allocator@D@2@@std@@QAE@XZ 00400000     HUD.obj
 0002:fffd4000       __ehfuncinfo$?_Assign_rv_contents_with_alloc_always_equal@?$basic_string@DU?$char_traits@D@std@@V?$allocator@D@2@@std@@QAEX$$QAV12@U?$integral_constant@_N$00@2@@Z 00400000     HUD.obj
 0001:fffff000       __ehhandler$??1?$_Tree_comp_alloc@V?$_Tmap_traits@U?$pair@HH@std@@_NU?$less@U?$pair@HH@std@@@2@V?$allocator@U?$pair@$$CBU?$pair@HH@std@@_N@std@@@2@$0A@@std@@@std@@QAE@XZ 00400000 f   PsyhshTileManager.obj
 0000:fffc8000       .debug$S                   00400000     SDL2:SDL2.dll
 0000:fffc8000       .debug$S                   00400000     SDL2:SDL2.dll
 0000:fffc8000       .debug$S                   00400000     SDL2:SDL2.dll
 0000:fffc8000       .debug$S                   00400000     msvcprt:MSVCP140.dll
 0001:fffff000       __ehhandler$??$_Freenode0@V?$allocator@U?$_Tree_node@U?$pair@$$CBU?$pair@HH@std@@_N@std@@PAX@std@@@std@@@?$_Tree_node@U?$pair@$$CBU?$pair@HH@std@@_N@std@@PAX@std@@SAXAAV?$allocator@U?$_Tree_node@U?$pair@$$CBU?$pair@HH@std@@_N@std@@PAX@std@@@1@PAU01@@Z 00400000 f   PsyhshTileManager.obj
 0001:fffff000       __ehhandler$?clear@?$_Tree@V?$_Tmap_traits@U?$pair@HH@std@@_NU?$less@U?$pair@HH@std@@@2@V?$allocator@U?$pair@$$CBU?$pair@HH@std@@_N@std@@@2@$0A@@std@@@std@@QAEXXZ 00400000 f   PsyhshTileManager.obj
 0000:fffc8000       .debug$S                   00400000     SDL2:SDL2.dll
 0000:fffc8000       .debug$S                   00400000     SDL2:SDL2.dll
 0000:fffc8000       .debug$S                   00400000     SDL2:SDL2.dll
 0002:fffd4000       __ehfuncinfo$??1?$_Tree@V?$_Tmap_traits@U?$pair@HH@std@@_NU?$less@U?$pair@HH@std@@@2@V?$allocator@U?$pair@$$CBU?$pair@HH@std@@_N@std@@@2@$0A@@std@@@std@@QAE@XZ 00400000     PsyhshTileManager.obj
 0002:fffd4000       __unwindtable$??$use_facet@V?$codecvt@DDU_Mbstatet@@@std@@@std@@YAABV?$codecvt@DDU_Mbstatet@@@0@ABVlocale@0@@Z 00400000     Stage.obj
 0002:fffd4000       __ehfuncinfo$??0?$basic_string@DU?$char_traits@D@std@@V?$allocator@D@2@@std@@QAE@$$QAV01@@Z 00400000     HUD.obj
 0000:fffc8000       .debug$S                   00400000     msvcprt:MSVCP140.dll
 0002:fffd4000       __ehfuncinfo$?end@?$_Tree@V?$_Tmap_traits@U?$pair@HH@std@@_NU?$less@U?$pair@HH@std@@@2@V?$allocator@U?$pair@$$CBU?$pair@HH@std@@_N@std@@@2@$0A@@std@@@std@@QAE?AV?$_Tree_iterator@V?$_Tree_val@U?$_Tree_simple_types@U?$pair@$$CBU?$pair@HH@std@@_N@std@@@std@@@std@@@2@XZ 00400000     PsyhshTileManager.obj
 0002:fffd4000       __ehfuncinfo$?clear@?$_Tree@V?$_Tmap_traits@U?$pair@HH@std@@_NU?$less@U?$pair@HH@std@@@2@V?$allocator@U?$pair@$$CBU?$pair@HH@std@@_N@std@@@2@$0A@@std@@@std@@QAEXXZ 00400000     PsyhshTileManager.obj
 0000:fffc8000       .debug$S                   00400000     msvcprt:MSVCP140.dll
 0000:fffc8000       .debug$S                   00400000     SDL2:SDL2.dll
 0000:fffc8000       .debug$S                   00400000     SDL2:SDL2.dll
 0000:fffc8000       .debug$S                   00400000     SDL2:SDL2.dll
 0000:fffc8000       .debug$S                   00400000     SDL2:SDL2.dll
 0000:fffc8000       .debug$S                   00400000     SDL2:SDL2.dll
 0000:fffc8000       .debug$S                   00400000     SDL2:SDL2.dll
 0000:fffc8000       .debug$S                   00400000     SDL2:SDL2.dll
 0000:fffc8000       .debug$S                   00400000     SDL2:SDL2.dll
 0002:fffd4000       __unwindtable$?_Endwrite@?$basic_filebuf@DU?$char_traits@D@std@@@std@@IAE_NXZ 00400000     Stage.obj
 0002:fffd4000       __unwindtable$??0?$basic_string@DU?$char_traits@D@std@@V?$allocator@D@2@@std@@QAE@QBDI@Z 00400000     HUD.obj
 0002:fffd4000       __unwindtable$?uflow@?$basic_filebuf@DU?$char_traits@D@std@@@std@@MAEHXZ 00400000     Stage.obj
 0001:fffff000       __unwindfunclet$??$?0PADX@?$basic_string@DU?$char_traits@D@std@@V?$allocator@D@2@@std@@QAE@PAD0ABV?$allocator@D@1@@Z$0 00400000 f   HUD.obj
 0002:fffd4000       __unwindtable$?overflow@?$basic_filebuf@DU?$char_traits@D@std@@@std@@MAEHH@Z 00400000     Stage.obj
 0001:fffff000       __ehhandler$?c_str@?$basic_string@DU?$char_traits@D@std@@V?$allocator@D@2@@std@@QBEPBDXZ 00400000 f   HUD.obj
 0002:fffd4000       __unwindtable$?open@?$basic_filebuf@DU?$char_traits@D@std@@@std@@QAEPAV12@PBDHH@Z 00400000     Stage.obj
 0001:fffff000       __ehhandler$??1?$basic_string@DU?$char_traits@D@std@@V?$allocator@D@2@@std@@QAE@XZ 00400000 f   HUD.obj
 0002:fffd4000       __ehfuncinfo$??1?$basic_filebuf@DU?$char_traits@D@std@@@std@@UAE@XZ 00400000     Stage.obj
 0002:fffd4000       __unwindtable$??0?$basic_filebuf@DU?$char_traits@D@std@@@std@@QAE@PAU_iobuf@@@Z 00400000     Stage.obj
 0001:fffff000       __ehhandler$?_Assign_rv_contents_with_alloc_always_equal@?$basic_string@DU?$char_traits@D@std@@V?$allocator@D@2@@std@@QAEX$$QAV12@U?$integral_constant@_N$00@2@@Z 00400000 f   HUD.obj
 0002:fffd4000       __unwindtable$??0?$basic_ifstream@DU?$char_traits@D@std@@@std@@QAE@PBDHH@Z 00400000     Stage.obj
 0001:fffff000       __ehhandler$??0?$basic_string@DU?$char_traits@D@std@@V?$allocator@D@2@@std@@QAE@$$QAV01@@Z 00400000 f   HUD.obj
 0000:fffc8000       .debug$S                   00400000     SDL2:SDL2.dll
 0000:fffc8000       .debug$S                   00400000     SDL2:SDL2.dll
 0000:fffc8000       .debug$S                   00400000     kernel32:KERNEL32.dll
 0000:fffc8000       .debug$S                   00400000     kernel32:KERNEL32.dll
 0000:fffc8000       .debug$S                   00400000     kernel32:KERNEL32.dll
 0000:fffc8000       .debug$S                   00400000     kernel32:KERNEL32.dll
 0000:fffc8000       .debug$S                   00400000     kernel32:KERNEL32.dll
 0000:fffc8000       .debug$S                   00400000     msvcprt:MSVCP140.dll
 0000:fffc8000       .debug$S                   00400000     kernel32:KERNEL32.dll
 0000:fffc8000       .debug$S                   00400000     kernel32:KERNEL32.dll
 0000:fffc8000       .debug$S                   00400000     msvcprt:MSVCP140.dll
 0000:fffc8000       .debug$S                   00400000     kernel32:KERNEL32.dll
 0000:fffc8000       .debug$S                   00400000     SDL2:SDL2.dll
 0000:fffc8000       .debug$S                   00400000     SDL2:SDL2.dll
 0000:fffc8000       .debug$S                   00400000     kernel32:KERNEL32.dll
 0000:fffc8000       .debug$S                   00400000     msvcprt:MSVCP140.dll
 0000:fffc8000       .debug$S                   00400000     kernel32:KERNEL32.dll
 0000:fffc8000       .debug$S                   00400000     kernel32:KERNEL32.dll
 0000:fffc8000       .debug$S                   00400000     ucrt:api-ms-win-crt-heap-l1-1-0.dll
 0000:fffc8000       .debug$S                   00400000     msvcprt:MSVCP140.dll
 0000:fffc8000       .debug$S                   00400000     ucrt:api-ms-win-crt-runtime-l1-1-0.dll
 0000:fffc8000       .debug$S                   00400000     SDL2:SDL2.dll
 0000:fffc8000       .debug$S                   00400000     ucrt:api-ms-win-crt-runtime-l1-1-0.dll
 0002:fffd4000       __ehfuncinfo$??1locale@std@@QAE@XZ 00400000     Stage.obj
 0000:fffc8000       .debug$S                   00400000     SDL2:SDL2.dll
 0000:fffc8000       .debug$S                   00400000     ucrt:api-ms-win-crt-runtime-l1-1-0.dll
 0002:fffd4000       __ehfuncinfo$?c_str@?$basic_string@DU?$char_traits@D@std@@V?$allocator@D@2@@std@@QBEPBDXZ 00400000     Stage.obj
 0002:fffd4000       __ehfuncinfo$?begin@?$basic_string@DU?$char_traits@D@std@@V?$allocator@D@2@@std@@QAE?AV?$_String_iterator@V?$_String_val@U?$_Simple_types@D@std@@@std@@@2@XZ 00400000     Stage.obj
 0002:fffd4000       __ehfuncinfo$??1?$basic_string@DU?$char_traits@D@std@@V?$allocator@D@2@@std@@QAE@XZ 00400000     Stage.obj
 0002:fffd4000       __ehfuncinfo$?_Assign_rv_contents_with_alloc_always_equal@?$basic_string@DU?$char_traits@D@std@@V?$allocator@D@2@@std@@QAEX$$QAV12@U?$integral_constant@_N$00@2@@Z 00400000     Stage.obj
 0002:fffd4000       __ehfuncinfo$??0?$basic_string@DU?$char_traits@D@std@@V?$allocator@D@2@@std@@QAE@$$QAV01@@Z 00400000     Stage.obj
 0002:fffd4000       __unwindtable$??0?$basic_string@DU?$char_traits@D@std@@V?$allocator@D@2@@std@@QAE@ID@Z 00400000     Stage.obj
 0001:fffff000       __unwindfunclet$??0?$basic_string@DU?$char_traits@D@std@@V?$allocator@D@2@@std@@QAE@QBDI@Z$0 00400000 f   HUD.obj
 0002:fffd4000       __unwindtable$??0?$basic_string@DU?$char_traits@D@std@@V?$allocator@D@2@@std@@QAE@QBD@Z 00400000     Stage.obj
 0002:fffd4000       __unwindtable$??$?0PADX@?$basic_string@DU?$char_traits@D@std@@V?$allocator@D@2@@std@@QAE@PAD0ABV?$allocator@D@1@@Z 00400000     HealthBar.obj
 0000:fffc8000       .debug$S                   00400000     ucrt:api-ms-win-crt-runtime-l1-1-0.dll
 0000:fffc8000       .debug$S                   00400000     ucrt:api-ms-win-crt-runtime-l1-1-0.dll
 0002:fffd4000       __ehfuncinfo$??0?$basic_string@DU?$char_traits@D@std@@V?$allocator@D@2@@std@@QAE@XZ 00400000     Stage.obj
 0000:fffc8000       .debug$S                   00400000     ucrt:api-ms-win-crt-runtime-l1-1-0.dll
 0000:fffc8000       .debug$S                   00400000     ucrt:api-ms-win-crt-heap-l1-1-0.dll
 0000:fffc8000       .debug$S                   00400000     SDL2:SDL2.dll
 0000:fffc8000       .debug$S                   00400000     ucrt:api-ms-win-crt-heap-l1-1-0.dll
 0000:fffc8000       .debug$S                   00400000     ucrt:api-ms-win-crt-stdio-l1-1-0.dll
 0000:fffc8000       .debug$S                   00400000     ucrt:api-ms-win-crt-heap-l1-1-0.dll
 0000:fffc8000       .debug$S                   00400000     ucrt:api-ms-win-crt-locale-l1-1-0.dll
 0000:fffc8000       .debug$S                   00400000     ucrt:api-ms-win-crt-runtime-l1-1-0.dll
 0000:fffc8000       .debug$S                   00400000     ucrt:api-ms-win-crt-runtime-l1-1-0.dll
 0000:fffc8000       .debug$S                   00400000     ucrt:api-ms-win-crt-runtime-l1-1-0.dll
 0000:fffc8000       .debug$S                   00400000     SDL2:SDL2.dll
 0000:fffc8000       .debug$S                   00400000     SDL2:SDL2.dll
 0000:fffc8000       .debug$S                   00400000     SDL2:SDL2.dll
 0000:fffc8000       .debug$S                   00400000     SDL2:SDL2.dll
 0001:fffff000       __unwindfunclet$??$use_facet@V?$codecvt@DDU_Mbstatet@@@std@@@std@@YAABV?$codecvt@DDU_Mbstatet@@@0@ABVlocale@0@@Z$0 00400000 f   Stage.obj
 0001:fffff000       __unwindfunclet$??0?$basic_string@DU?$char_traits@D@std@@V?$allocator@D@2@@std@@QAE@QBD@Z$0 00400000 f   Missile.obj
 0000:fffc8000       .debug$S                   00400000     ucrt:api-ms-win-crt-runtime-l1-1-0.dll
 0000:fffc8000       .debug$S                   00400000     ucrt:api-ms-win-crt-runtime-l1-1-0.dll
 0000:fffc8000       .debug$S                   00400000     ucrt:api-ms-win-crt-stdio-l1-1-0.dll
 0000:fffc8000       .debug$S                   00400000     ucrt:api-ms-win-crt-runtime-l1-1-0.dll
 0000:fffc8000       .debug$S                   00400000     ucrt:api-ms-win-crt-runtime-l1-1-0.dll
 0000:fffc8000       .debug$S                   00400000     ucrt:api-ms-win-crt-runtime-l1-1-0.dll
 0000:fffc8000       .debug$S                   00400000     ucrt:api-ms-win-crt-runtime-l1-1-0.dll
 0000:fffc8000       .debug$S                   00400000     ucrt:api-ms-win-crt-runtime-l1-1-0.dll
 0001:fffff000       __ehhandler$?end@?$_Tree@V?$_Tmap_traits@U?$pair@HH@std@@_NU?$less@U?$pair@HH@std@@@2@V?$allocator@U?$pair@$$CBU?$pair@HH@std@@_N@std@@@2@$0A@@std@@@std@@QAE?AV?$_Tree_iterator@V?$_Tree_val@U?$_Tree_simple_types@U?$pair@$$CBU?$pair@HH@std@@_N@std@@@std@@@std@@@2@XZ 00400000 f   PsyhshTileManager.obj
 0001:fffff000       __unwindfunclet$?_Endwrite@?$basic_filebuf@DU?$char_traits@D@std@@@std@@IAE_NXZ$0 00400000 f   Stage.obj
 0001:fffff000       __ehhandler$??1?$basic_string@DU?$char_traits@D@std@@V?$allocator@D@2@@std@@QAE@XZ 00400000 f   Missile.obj
 0001:fffff000       __unwindfunclet$?uflow@?$basic_filebuf@DU?$char_traits@D@std@@@std@@MAEHXZ$0 00400000 f   Stage.obj
 0002:fffd4000       __ehfuncinfo$?c_str@?$basic_string@DU?$char_traits@D@std@@V?$allocator@D@2@@std@@QBEPBDXZ 00400000     HealthBar.obj
 0001:fffff000       __unwindfunclet$?overflow@?$basic_filebuf@DU?$char_traits@D@std@@@std@@MAEHH@Z$0 00400000 f   Stage.obj
 0002:fffd4000       __ehfuncinfo$??1?$basic_string@DU?$char_traits@D@std@@V?$allocator@D@2@@std@@QAE@XZ 00400000     HealthBar.obj
 0001:fffff000       __unwindfunclet$?open@?$basic_filebuf@DU?$char_traits@D@std@@@std@@QAEPAV12@PBDHH@Z$0 00400000 f   Stage.obj
 0002:fffd4000       __unwindtable$??0?$basic_string@DU?$char_traits@D@std@@V?$allocator@D@2@@std@@QAE@QBD@Z 00400000     Missile.obj
 0001:fffff000       __ehhandler$??1?$basic_filebuf@DU?$char_traits@D@std@@@std@@UAE@XZ 00400000 f   Stage.obj
 0001:fffff000       __unwindfunclet$??0?$basic_filebuf@DU?$char_traits@D@std@@@std@@QAE@PAU_iobuf@@@Z$0 00400000 f   Stage.obj
 0002:fffd4000       __ehfuncinfo$??1?$basic_string@DU?$char_traits@D@std@@V?$allocator@D@2@@std@@QAE@XZ 00400000     Missile.obj
 0001:fffff000       __unwindfunclet$??$?0PADX@?$basic_string@DU?$char_traits@D@std@@V?$allocator@D@2@@std@@QAE@PAD0ABV?$allocator@D@1@@Z$0 00400000 f   HealthBar.obj
 0001:fffff000       __ehhandler$?c_str@?$basic_string@DU?$char_traits@D@std@@V?$allocator@D@2@@std@@QBEPBDXZ 00400000 f   HealthBar.obj
 0001:fffff000       __unwindfunclet$??0?$basic_ifstream@DU?$char_traits@D@std@@@std@@QAE@PBDHH@Z$0 00400000 f   Stage.obj
 0001:fffff000       __ehhandler$??1?$basic_string@DU?$char_traits@D@std@@V?$allocator@D@2@@std@@QAE@XZ 00400000 f   HealthBar.obj
 0000:fffc8000       .debug$S                   00400000     ucrt:api-ms-win-crt-runtime-l1-1-0.dll
 0001:fffff000       __ehhandler$?begin@?$_Tree@V?$_Tmap_traits@U?$pair@HH@std@@_NU?$less@U?$pair@HH@std@@@2@V?$allocator@U?$pair@$$CBU?$pair@HH@std@@_N@std@@@2@$0A@@std@@@std@@QAE?AV?$_Tree_iterator@V?$_Tree_val@U?$_Tree_simple_types@U?$pair@$$CBU?$pair@HH@std@@_N@std@@@std@@@std@@@2@XZ 00400000 f   PsyhshTileManager.obj
 0001:fffff000       __ehhandler$??1?$_Tree@V?$_Tmap_traits@U?$pair@HH@std@@_NU?$less@U?$pair@HH@std@@@2@V?$allocator@U?$pair@$$CBU?$pair@HH@std@@_N@std@@@2@$0A@@std@@@std@@QAE@XZ 00400000 f   PsyhshTileManager.obj
 0000:fffc8000       .debug$S                   00400000     ucrt:api-ms-win-crt-runtime-l1-1-0.dll
 0000:fffc8000       .debug$S                   00400000     ucrt:api-ms-win-crt-math-l1-1-0.dll
 0000:fffc8000       .debug$S                   00400000     ucrt:api-ms-win-crt-runtime-l1-1-0.dll
 0000:fffc8000       .debug$S                   00400000     ucrt:api-ms-win-crt-runtime-l1-1-0.dll
 0000:fffc8000       .debug$S                   00400000     ucrt:api-ms-win-crt-convert-l1-1-0.dll
 0000:fffc8000       .debug$S                   00400000     ucrt:api-ms-win-crt-convert-l1-1-0.dll
 0000:fffc8000       .debug$S                   00400000     ucrt:api-ms-win-crt-runtime-l1-1-0.dll
 0000:fffc8000       .debug$S                   00400000     ucrt:api-ms-win-crt-stdio-l1-1-0.dll
 0000:fffc8000       .debug$S                   00400000     ucrt:api-ms-win-crt-utility-l1-1-0.dll
 0000:fffc8000       .debug$S                   00400000     ucrt:api-ms-win-crt-filesystem-l1-1-0.dll
 0000:fffc8000       .debug$S                   00400000     ucrt:api-ms-win-crt-filesystem-l1-1-0.dll
 0000:fffc8000       .debug$S                   00400000     ucrt:api-ms-win-crt-stdio-l1-1-0.dll
 0000:fffc8000       .debug$S                   00400000     ucrt:api-ms-win-crt-stdio-l1-1-0.dll
 0000:fffc8000       .debug$S                   00400000     ucrt:api-ms-win-crt-stdio-l1-1-0.dll
 0000:fffc8000       .debug$S                   00400000     vcruntime:VCRUNTIME140.dll
 0000:fffc8000       .debug$S                   00400000     SDL2_image:SDL2_image.dll
 0000:fffc8000       .debug$S                   00400000     ucrt:api-ms-win-crt-stdio-l1-1-0.dll
 0000:fffc8000       .debug$S                   00400000     ucrt:api-ms-win-crt-stdio-l1-1-0.dll
 0000:fffc8000       .debug$S                   00400000     ucrt:api-ms-win-crt-stdio-l1-1-0.dll
 0000:fffc8000       .debug$S                   00400000     ucrt:api-ms-win-crt-stdio-l1-1-0.dll
 0000:fffc8000       .debug$S                   00400000     SDL2_ttf:SDL2_ttf.dll
 0000:fffc8000       .debug$S                   00400000     SDL2_ttf:SDL2_ttf.dll
 0000:fffc8000       .debug$S                   00400000     SDL2_ttf:SDL2_ttf.dll
 0000:fffc8000       .debug$S                   00400000     SDL2_ttf:SDL2_ttf.dll
 0000:fffca000       __guard_fids___except_handler4 00400000     MSVCRT:_chandler4gs_.obj
 0001:fffff000       __ehhandler$??1locale@std@@QAE@XZ 00400000 f   Stage.obj
 0000:fffc8000       .debug$S                   00400000     msvcprt:MSVCP140.dll
 0000:fffc8000       .debug$S                   00400000     msvcprt:MSVCP140.dll
 0001:fffff000       __ehhandler$?c_str@?$basic_string@DU?$char_traits@D@std@@V?$allocator@D@2@@std@@QBEPBDXZ 00400000 f   Stage.obj
 0001:fffff000       __ehhandler$?begin@?$basic_string@DU?$char_traits@D@std@@V?$allocator@D@2@@std@@QAE?AV?$_String_iterator@V?$_String_val@U?$_Simple_types@D@std@@@std@@@2@XZ 00400000 f   Stage.obj
 0001:fffff000       __ehhandler$??1?$basic_string@DU?$char_traits@D@std@@V?$allocator@D@2@@std@@QAE@XZ 00400000 f   Stage.obj
 0001:fffff000       __ehhandler$?_Assign_rv_contents_with_alloc_always_equal@?$basic_string@DU?$char_traits@D@std@@V?$allocator@D@2@@std@@QAEX$$QAV12@U?$integral_constant@_N$00@2@@Z 00400000 f   Stage.obj
 0001:fffff000       __ehhandler$??0?$basic_string@DU?$char_traits@D@std@@V?$allocator@D@2@@std@@QAE@$$QAV01@@Z 00400000 f   Stage.obj
 0001:fffff000       __unwindfunclet$??0?$basic_string@DU?$char_traits@D@std@@V?$allocator@D@2@@std@@QAE@ID@Z$0 00400000 f   Stage.obj
 0002:fffd4000       __ehfuncinfo$??1?$basic_string@DU?$char_traits@D@std@@V?$allocator@D@2@@std@@QAE@XZ 00400000     ControlledObject.obj
 0001:fffff000       __unwindfunclet$??0?$basic_string@DU?$char_traits@D@std@@V?$allocator@D@2@@std@@QAE@QBD@Z$0 00400000 f   Stage.obj
 0001:fffff000       __ehhandler$??1?$basic_string@DU?$char_traits@D@std@@V?$allocator@D@2@@std@@QAE@XZ 00400000 f   ControlledObject.obj
 0000:fffc8000       .debug$S                   00400000     msvcprt:MSVCP140.dll
 0000:fffc8000       .debug$S                   00400000     msvcprt:MSVCP140.dll
 0001:fffff000       __ehhandler$??0?$basic_string@DU?$char_traits@D@std@@V?$allocator@D@2@@std@@QAE@XZ 00400000 f   Stage.obj
 0000:fffc8000       .debug$S                   00400000     ucrt:api-ms-win-crt-stdio-l1-1-0.dll
 0000:fffc8000       .debug$S                   00400000     ucrt:api-ms-win-crt-stdio-l1-1-0.dll
 0000:fffc8000       .debug$S                   00400000     ucrt:api-ms-win-crt-stdio-l1-1-0.dll
 0000:fffc8000       .debug$S                   00400000     ucrt:api-ms-win-crt-stdio-l1-1-0.dll
 0000:fffc8000       .debug$S                   00400000     ucrt:api-ms-win-crt-runtime-l1-1-0.dll
 0000:fffc8000       .debug$S                   00400000     ucrt:api-ms-win-crt-runtime-l1-1-0.dll
 0000:fffc8000       .debug$S                   00400000     ucrt:api-ms-win-crt-string-l1-1-0.dll
 0000:fffc8000       .debug$S                   00400000     ucrt:api-ms-win-crt-string-l1-1-0.dll
 0000:fffc8000       .debug$S                   00400000     ucrt:api-ms-win-crt-stdio-l1-1-0.dll
 0002:fffd4000       __ehfuncinfo$??1?$basic_string@DU?$char_traits@D@std@@V?$allocator@D@2@@std@@QAE@XZ 00400000     Sprite.obj
 0002:fffd4000       __ehfuncinfo$?_Assign_rv_contents_with_alloc_always_equal@?$basic_string@DU?$char_traits@D@std@@V?$allocator@D@2@@std@@QAEX$$QAV12@U?$integral_constant@_N$00@2@@Z 00400000     Sprite.obj
 0002:fffd4000       __ehfuncinfo$??0?$basic_string@DU?$char_traits@D@std@@V?$allocator@D@2@@std@@QAE@$$QAV01@@Z 00400000     Sprite.obj
 0002:fffd4000       __ehfuncinfo$??0?$basic_string@DU?$char_traits@D@std@@V?$allocator@D@2@@std@@QAE@XZ 00400000     Sprite.obj
 0000:fffc8000       .debug$S                   00400000     ucrt:api-ms-win-crt-stdio-l1-1-0.dll
 0000:fffc8000       .debug$S                   00400000     ucrt:api-ms-win-crt-math-l1-1-0.dll
 0000:fffca000       __guard_fids_??__E_Fac_tidy_reg@std@@YAXXZ 00400000     msvcprt:locale0_implib.obj
 0002:fffd4000       __unwindtable$??$?0PADX@?$basic_string@DU?$char_traits@D@std@@V?$allocator@D@2@@std@@QAE@PAD0ABV?$allocator@D@1@@Z 00400000     PsyhshEngine.obj
 0000:fffc8000       .debug$S                   00400000     ucrt:api-ms-win-crt-runtime-l1-1-0.dll
 0002:fffd4000       __ehfuncinfo$??$_Freenode0@V?$allocator@U?$_Tree_node@U?$pair@$$CBU?$pair@HH@std@@_N@std@@PAX@std@@@std@@@?$_Tree_node@U?$pair@$$CBU?$pair@HH@std@@_N@std@@PAX@std@@SAXAAV?$allocator@U?$_Tree_node@U?$pair@$$CBU?$pair@HH@std@@_N@std@@PAX@std@@@1@PAU01@@Z 00400000     PsyhshEngine.obj
 0000:fffc8000       .debug$S                   00400000     ucrt:api-ms-win-crt-math-l1-1-0.dll
 0000:fffc8000       .debug$S                   00400000     ucrt:api-ms-win-crt-math-l1-1-0.dll
 0000:fffc8000       .debug$S                   00400000     ucrt:api-ms-win-crt-time-l1-1-0.dll
 0000:fffc8000       .debug$S                   00400000     ucrt:api-ms-win-crt-utility-l1-1-0.dll
 0000:fffc8000       .debug$S                   00400000     ucrt:api-ms-win-crt-string-l1-1-0.dll
 0000:fffc8000       .debug$S                   00400000     SDL2:SDL2.dll
 0000:fffc8000       .debug$S                   00400000     ucrt:api-ms-win-crt-runtime-l1-1-0.dll
 0000:fffc8000       .debug$S                   00400000     vcruntime:VCRUNTIME140.dll
 0000:fffc8000       .debug$S                   00400000     vcruntime:VCRUNTIME140.dll
 0000:fffc8000       .debug$S                   00400000     vcruntime:VCRUNTIME140.dll
 0000:fffc8000       .debug$S                   00400000     vcruntime:VCRUNTIME140.dll
 0000:fffc8000       .debug$S                   00400000     vcruntime:VCRUNTIME140.dll
 0000:fffc8000       .debug$S                   00400000     vcruntime:VCRUNTIME140.dll
 0000:fffc8000       .debug$S                   00400000     msvcprt:MSVCP140.dll
 0000:fffc8000       .debug$S                   00400000     vcruntime:VCRUNTIME140.dll
 0000:fffc8000       .debug$S                   00400000     msvcprt:MSVCP140.dll
 0000:fffc8000       .debug$S                   00400000     msvcprt:MSVCP140.dll
 0000:fffca000       __guard_fids__             00400000     MSVCRT:throw_bad_alloc.obj
 0000:fffca000       __guard_fids__             00400000     MSVCRT:throw_bad_alloc.obj
 0000:fffca000       __guard_fids__             00400000     MSVCRT:throw_bad_alloc.obj
 0000:fffca000       __guard_fids__             00400000     MSVCRT:throw_bad_alloc.obj
 0002:fffd4000       __ehfuncinfo$??1?$vector@PAVCreature@@V?$allocator@PAVCreature@@@std@@@std@@QAE@XZ 00400000     PsyhshEngine.obj
 0001:fffff000       __ehhandler$??1?$basic_string@DU?$char_traits@D@std@@V?$allocator@D@2@@std@@QAE@XZ 00400000 f   Sprite.obj
 0001:fffff000       __ehhandler$?_Assign_rv_contents_with_alloc_always_equal@?$basic_string@DU?$char_traits@D@std@@V?$allocator@D@2@@std@@QAEX$$QAV12@U?$integral_constant@_N$00@2@@Z 00400000 f   Sprite.obj
 0001:fffff000       __ehhandler$??0?$basic_string@DU?$char_traits@D@std@@V?$allocator@D@2@@std@@QAE@$$QAV01@@Z 00400000 f   Sprite.obj
 0001:fffff000       __ehhandler$??0?$basic_string@DU?$char_traits@D@std@@V?$allocator@D@2@@std@@QAE@XZ 00400000 f   Sprite.obj
 0000:fffc8000       .debug$S                   00400000     msvcprt:MSVCP140.dll
 0000:fffc8000       .debug$S                   00400000     msvcprt:MSVCP140.dll
 0000:fffc8000       .debug$S                   00400000     msvcprt:MSVCP140.dll
 0000:fffc8000       .debug$S                   00400000     vcruntime:VCRUNTIME140.dll
 0000:fffc8000       .debug$S                   00400000     vcruntime:VCRUNTIME140.dll
 0002:fffd4000       __ehfuncinfo$?clear@?$_Tree@V?$_Tmap_traits@U?$pair@HH@std@@_NU?$less@U?$pair@HH@std@@@2@V?$allocator@U?$pair@$$CBU?$pair@HH@std@@_N@std@@@2@$0A@@std@@@std@@QAEXXZ 00400000     PsyhshEngine.obj
 0002:fffd4000       __ehfuncinfo$?end@?$_Tree@V?$_Tmap_traits@U?$pair@HH@std@@_NU?$less@U?$pair@HH@std@@@2@V?$allocator@U?$pair@$$CBU?$pair@HH@std@@_N@std@@@2@$0A@@std@@@std@@QAE?AV?$_Tree_iterator@V?$_Tree_val@U?$_Tree_simple_types@U?$pair@$$CBU?$pair@HH@std@@_N@std@@@std@@@std@@@2@XZ 00400000     PsyhshEngine.obj
 0002:fffd4000       __ehfuncinfo$?begin@?$_Tree@V?$_Tmap_traits@U?$pair@HH@std@@_NU?$less@U?$pair@HH@std@@@2@V?$allocator@U?$pair@$$CBU?$pair@HH@std@@_N@std@@@2@$0A@@std@@@std@@QAE?AV?$_Tree_iterator@V?$_Tree_val@U?$_Tree_simple_types@U?$pair@$$CBU?$pair@HH@std@@_N@std@@@std@@@std@@@2@XZ 00400000     PsyhshEngine.obj
 0002:fffd4000       __ehfuncinfo$??1?$_Tree@V?$_Tmap_traits@U?$pair@HH@std@@_NU?$less@U?$pair@HH@std@@@2@V?$allocator@U?$pair@$$CBU?$pair@HH@std@@_N@std@@@2@$0A@@std@@@std@@QAE@XZ 00400000     PsyhshEngine.obj
 0002:fffd4000       __ehfuncinfo$??1?$_Tree_comp_alloc@V?$_Tmap_traits@U?$pair@HH@std@@_NU?$less@U?$pair@HH@std@@@2@V?$allocator@U?$pair@$$CBU?$pair@HH@std@@_N@std@@@2@$0A@@std@@@std@@QAE@XZ 00400000     PsyhshEngine.obj
 0000:fffc8000       .debug$S                   00400000     msvcprt:MSVCP140.dll
 0002:fffd4000       __ehfuncinfo$?c_str@?$basic_string@DU?$char_traits@D@std@@V?$allocator@D@2@@std@@QBEPBDXZ 00400000     PsyhshEngine.obj
 0000:fffc8000       .debug$S                   00400000     msvcprt:MSVCP140.dll
 0002:fffd4000       __ehfuncinfo$??1?$basic_string@DU?$char_traits@D@std@@V?$allocator@D@2@@std@@QAE@XZ 00400000     PsyhshEngine.obj
 0002:fffd4000       __ehfuncinfo$?_Assign_rv_contents_with_alloc_always_equal@?$basic_string@DU?$char_traits@D@std@@V?$allocator@D@2@@std@@QAEX$$QAV12@U?$integral_constant@_N$00@2@@Z 00400000     PsyhshEngine.obj
 0002:fffd4000       __ehfuncinfo$??0?$basic_string@DU?$char_traits@D@std@@V?$allocator@D@2@@std@@QAE@$$QAV01@@Z 00400000     PsyhshEngine.obj
 0000:fffc8000       .debug$S                   00400000     msvcprt:MSVCP140.dll
 0000:fffc8000       .debug$S                   00400000     msvcprt:MSVCP140.dll
 0002:fffd4000       __unwindtable$??0?$basic_string@DU?$char_traits@D@std@@V?$allocator@D@2@@std@@QAE@QBD@Z 00400000     PsyhshEngine.obj
 0001:fffff000       __ehhandler$??1?$basic_string@DU?$char_traits@D@std@@V?$allocator@D@2@@std@@QAE@XZ 00400000 f   PsyhshEngine.obj
 0002:fffd4000       __unwindtable$??0?$basic_string@DU?$char_traits@D@std@@V?$allocator@D@2@@std@@QAE@QBDI@Z 00400000     PsyhshEngine.obj
 0000:fffc8000       .debug$S                   00400000     msvcprt:MSVCP140.dll
 0000:fffc8000       .debug$S                   00400000     msvcprt:MSVCP140.dll
 0001:fffff000       __unwindfunclet$??$?0PADX@?$basic_string@DU?$char_traits@D@std@@V?$allocator@D@2@@std@@QAE@PAD0ABV?$allocator@D@1@@Z$0 00400000 f   PsyhshEngine.obj
 0001:fffff000       __unwindfunclet$??0?$basic_string@DU?$char_traits@D@std@@V?$allocator@D@2@@std@@QAE@QBD@Z$0 00400000 f   PsyhshEngine.obj
 0001:fffff000       __ehhandler$??$_Freenode0@V?$allocator@U?$_Tree_node@U?$pair@$$CBU?$pair@HH@std@@_N@std@@PAX@std@@@std@@@?$_Tree_node@U?$pair@$$CBU?$pair@HH@std@@_N@std@@PAX@std@@SAXAAV?$allocator@U?$_Tree_node@U?$pair@$$CBU?$pair@HH@std@@_N@std@@PAX@std@@@1@PAU01@@Z 00400000 f   PsyhshEngine.obj
 0000:fffc8000       .debug$S                   00400000     msvcprt:MSVCP140.dll
 0000:fffc8000       .debug$S                   00400000     SDL2_ttf:SDL2_ttf.dll
 0000:fffca000       __guard_fids___guard_icall_checks_enforced 00400000     MSVCRT:guard_support.obj
 0000:fffc8000       .debug$S                   00400000     msvcprt:MSVCP140.dll
 0000:fffca000       __guard_fids__             00400000     MSVCRT:throw_bad_alloc.obj
 0000:fffc8000       .debug$S                   00400000     msvcprt:MSVCP140.dll
 0000:fffc8000       .debug$S                   00400000     msvcprt:MSVCP140.dll
 0000:fffca000       __guard_fids__             00400000     MSVCRT:throw_bad_alloc.obj
 0000:fffc8000       .debug$S                   00400000     msvcprt:MSVCP140.dll
 0001:fffff000       __ehhandler$?c_str@?$basic_string@DU?$char_traits@D@std@@V?$allocator@D@2@@std@@QBEPBDXZ 00400000 f   Sprite.obj
 0000:fffc8000       .debug$S                   00400000     msvcprt:MSVCP140.dll
 0000:fffc8000       .debug$S                   00400000     msvcprt:MSVCP140.dll
 0002:fffd4000       __ehfuncinfo$?c_str@?$basic_string@DU?$char_traits@D@std@@V?$allocator@D@2@@std@@QBEPBDXZ 00400000     Sprite.obj
 0000:fffca000       __guard_fids____scrt_set_unhandled_exception_filter 00400000     MSVCRT:utility_desktop.obj
 0000:fffca000       __guard_fids__             00400000     MSVCRT:std_type_info_static.obj
 0000:fffca000       __guard_fids_?pre_c_initialization@@YAHXZ 00400000     MSVCRT:exe_main.obj
 0000:fffca000       __guard_fids__             00400000     MSVCRT:exe_main.obj
 0002:fffd4000       __ehfuncinfo$??1?$_Tree_comp_alloc@V?$_Tmap_traits@U?$pair@HH@std@@_NU?$less@U?$pair@HH@std@@@2@V?$allocator@U?$pair@$$CBU?$pair@HH@std@@_N@std@@@2@$0A@@std@@@std@@QAE@XZ 00400000     PsyhshTileManager.obj
 0000:fffc8000       .debug$S                   00400000     msvcprt:MSVCP140.dll
 0000:fffc8000       .debug$S                   00400000     msvcprt:MSVCP140.dll
 0000:fffc8000       .debug$S                   00400000     SDL2:SDL2.dll
 0001:fffff000       __ehhandler$??1?$vector@PAVCreature@@V?$allocator@PAVCreature@@@std@@@std@@QAE@XZ 00400000 f   PsyhshEngine.obj
 0000:fffc8000       .debug$S                   00400000     msvcprt:MSVCP140.dll
 0000:fffc8000       .debug$S                   00400000     msvcprt:MSVCP140.dll
 0000:fffc8000       .debug$S                   00400000     msvcprt:MSVCP140.dll
 0002:fffd4000       __ehfuncinfo$?begin@?$_Tree@V?$_Tmap_traits@U?$pair@HH@std@@_NU?$less@U?$pair@HH@std@@@2@V?$allocator@U?$pair@$$CBU?$pair@HH@std@@_N@std@@@2@$0A@@std@@@std@@QAE?AV?$_Tree_iterator@V?$_Tree_val@U?$_Tree_simple_types@U?$pair@$$CBU?$pair@HH@std@@_N@std@@@std@@@std@@@2@XZ 00400000     PsyhshTileManager.obj
 0000:fffc8000       .debug$S                   00400000     msvcprt:MSVCP140.dll
 0000:fffc8000       .debug$S                   00400000     msvcprt:MSVCP140.dll
 0000:fffc8000       .debug$S                   00400000     vcruntime:VCRUNTIME140.dll
 0000:fffc8000       .debug$S                   00400000     ucrt:api-ms-win-crt-math-l1-1-0.dll
 0002:fffd4000       __ehfuncinfo$??$_Freenode0@V?$allocator@U?$_Tree_node@U?$pair@$$CBU?$pair@HH@std@@_N@std@@PAX@std@@@std@@@?$_Tree_node@U?$pair@$$CBU?$pair@HH@std@@_N@std@@PAX@std@@SAXAAV?$allocator@U?$_Tree_node@U?$pair@$$CBU?$pair@HH@std@@_N@std@@PAX@std@@@1@PAU01@@Z 00400000     PsyhshTileManager.obj
 0000:fffc8000       .debug$S                   00400000     msvcprt:MSVCP140.dll
 0000:fffc8000       .debug$S                   00400000     msvcprt:MSVCP140.dll
 0000:fffca000       __guard_fids__             00400000     MSVCRT:throw_bad_alloc.obj
 0000:fffc8000       .debug$S                   00400000     msvcprt:MSVCP140.dll
 0000:fffc8000       .debug$S                   00400000     msvcprt:MSVCP140.dll
 0000:fffc8000       .debug$S                   00400000     msvcprt:MSVCP140.dll
 0000:fffc8000       .debug$S                   00400000     msvcprt:MSVCP140.dll
 0000:fffc8000       .debug$S                   00400000     msvcprt:MSVCP140.dll
 0000:fffc8000       .debug$S                   00400000     msvcprt:MSVCP140.dll
 0000:fffca000       __guard_fids__             00400000     msvcprt:locale0_implib.obj
 0000:fffc8000       .debug$S                   00400000     msvcprt:MSVCP140.dll
 0000:fffc8000       .debug$S                   00400000     msvcprt:MSVCP140.dll
 0000:fffc8000       .debug$S                   00400000     msvcprt:MSVCP140.dll
 0000:fffc8000       .debug$S                   00400000     kernel32:KERNEL32.dll
 0001:fffff000       __ehhandler$?clear@?$_Tree@V?$_Tmap_traits@U?$pair@HH@std@@_NU?$less@U?$pair@HH@std@@@2@V?$allocator@U?$pair@$$CBU?$pair@HH@std@@_N@std@@@2@$0A@@std@@@std@@QAEXXZ 00400000 f   PsyhshEngine.obj
 0001:fffff000       __ehhandler$?end@?$_Tree@V?$_Tmap_traits@U?$pair@HH@std@@_NU?$less@U?$pair@HH@std@@@2@V?$allocator@U?$pair@$$CBU?$pair@HH@std@@_N@std@@@2@$0A@@std@@@std@@QAE?AV?$_Tree_iterator@V?$_Tree_val@U?$_Tree_simple_types@U?$pair@$$CBU?$pair@HH@std@@_N@std@@@std@@@std@@@2@XZ 00400000 f   PsyhshEngine.obj
 0001:fffff000       __ehhandler$?begin@?$_Tree@V?$_Tmap_traits@U?$pair@HH@std@@_NU?$less@U?$pair@HH@std@@@2@V?$allocator@U?$pair@$$CBU?$pair@HH@std@@_N@std@@@2@$0A@@std@@@std@@QAE?AV?$_Tree_iterator@V?$_Tree_val@U?$_Tree_simple_types@U?$pair@$$CBU?$pair@HH@std@@_N@std@@@std@@@std@@@2@XZ 00400000 f   PsyhshEngine.obj
 0001:fffff000       __ehhandler$??1?$_Tree@V?$_Tmap_traits@U?$pair@HH@std@@_NU?$less@U?$pair@HH@std@@@2@V?$allocator@U?$pair@$$CBU?$pair@HH@std@@_N@std@@@2@$0A@@std@@@std@@QAE@XZ 00400000 f   PsyhshEngine.obj
 0001:fffff000       __ehhandler$??1?$_Tree_comp_alloc@V?$_Tmap_traits@U?$pair@HH@std@@_NU?$less@U?$pair@HH@std@@@2@V?$allocator@U?$pair@$$CBU?$pair@HH@std@@_N@std@@@2@$0A@@std@@@std@@QAE@XZ 00400000 f   PsyhshEngine.obj
 0000:fffc8000       .debug$S                   00400000     msvcprt:MSVCP140.dll
 0001:fffff000       __ehhandler$?c_str@?$basic_string@DU?$char_traits@D@std@@V?$allocator@D@2@@std@@QBEPBDXZ 00400000 f   PsyhshEngine.obj
 0000:fffca000       __guard_fids__             00400000     MSVCRT:throw_bad_alloc.obj
 0000:fffca004       __guard_fids__             00400004     MSVCRT:exe_main.obj
 0002:fffd4008       __ehfuncinfo$?overflow@?$basic_filebuf@DU?$char_traits@D@std@@@std@@MAEHH@Z 00400008     Stage.obj
 0001:fffff008       __ehhandler$??0?$basic_string@DU?$char_traits@D@std@@V?$allocator@D@2@@std@@QAE@ID@Z 00400008 f   Stage.obj
 0002:fffd4008       __ehfuncinfo$??0?$basic_filebuf@DU?$char_traits@D@std@@@std@@QAE@PAU_iobuf@@@Z 00400008     Stage.obj
 0002:fffd4008       __ehfuncinfo$?open@?$basic_filebuf@DU?$char_traits@D@std@@@std@@QAEPAV12@PBDHH@Z 00400008     Stage.obj
 0001:fffff008       __ehhandler$?overflow@?$basic_filebuf@DU?$char_traits@D@std@@@std@@MAEHH@Z 00400008 f   Stage.obj
 0001:fffff008       __ehhandler$?open@?$basic_filebuf@DU?$char_traits@D@std@@@std@@QAEPAV12@PBDHH@Z 00400008 f   Stage.obj
 0002:fffd4008       __ehfuncinfo$??0?$basic_string@DU?$char_traits@D@std@@V?$allocator@D@2@@std@@QAE@ID@Z 00400008     Stage.obj
 0001:fffff008       __ehhandler$?uflow@?$basic_filebuf@DU?$char_traits@D@std@@@std@@MAEHXZ 00400008 f   Stage.obj
 0002:fffd4008       __ehfuncinfo$??0?$basic_string@DU?$char_traits@D@std@@V?$allocator@D@2@@std@@QAE@QBD@Z 00400008     Missile.obj
 0001:fffff008       __ehhandler$??0?$basic_string@DU?$char_traits@D@std@@V?$allocator@D@2@@std@@QAE@QBD@Z 00400008 f   Missile.obj
 0001:fffff008       __ehhandler$?_Endwrite@?$basic_filebuf@DU?$char_traits@D@std@@@std@@IAE_NXZ 00400008 f   Stage.obj
 0002:fffd4008       __ehfuncinfo$??$?0PADX@?$basic_string@DU?$char_traits@D@std@@V?$allocator@D@2@@std@@QAE@PAD0ABV?$allocator@D@1@@Z 00400008     HealthBar.obj
 0002:fffd4008       __ehfuncinfo$??0?$basic_string@DU?$char_traits@D@std@@V?$allocator@D@2@@std@@QAE@QBD@Z 00400008     Stage.obj
 0001:fffff008       __ehhandler$??0?$basic_string@DU?$char_traits@D@std@@V?$allocator@D@2@@std@@QAE@QBDI@Z 00400008 f   HUD.obj
 0001:fffff008       __ehhandler$??0?$basic_string@DU?$char_traits@D@std@@V?$allocator@D@2@@std@@QAE@QBDI@Z 00400008 f   PsyhshEngine.obj
 0002:fffd4008       __ehfuncinfo$??0?$basic_string@DU?$char_traits@D@std@@V?$allocator@D@2@@std@@QAE@QBDI@Z 00400008     PsyhshEngine.obj
 0001:fffff008       __ehhandler$??0?$basic_string@DU?$char_traits@D@std@@V?$allocator@D@2@@std@@QAE@QBD@Z 00400008 f   PsyhshEngine.obj
 0002:fffd4008       __ehfuncinfo$??$?0PADX@?$basic_string@DU?$char_traits@D@std@@V?$allocator@D@2@@std@@QAE@PAD0ABV?$allocator@D@1@@Z 00400008     PsyhshEngine.obj
 0002:fffd4008       __ehfuncinfo$??$?0PADX@?$basic_string@DU?$char_traits@D@std@@V?$allocator@D@2@@std@@QAE@PAD0ABV?$allocator@D@1@@Z 00400008     HUD.obj
 0000:fffca008       __guard_fids__             00400008     MSVCRT:exe_main.obj
 0002:fffd4008       __ehfuncinfo$??0?$basic_string@DU?$char_traits@D@std@@V?$allocator@D@2@@std@@QAE@QBD@Z 00400008     PsyhshEngine.obj
 0001:fffff008       __ehhandler$??$?0PADX@?$basic_string@DU?$char_traits@D@std@@V?$allocator@D@2@@std@@QAE@PAD0ABV?$allocator@D@1@@Z 00400008 f   PsyhshEngine.obj
 0002:fffd4008       __ehfuncinfo$??$use_facet@V?$codecvt@DDU_Mbstatet@@@std@@@std@@YAABV?$codecvt@DDU_Mbstatet@@@0@ABVlocale@0@@Z 00400008     Stage.obj
 0002:fffd4008       __ehfuncinfo$?_Endwrite@?$basic_filebuf@DU?$char_traits@D@std@@@std@@IAE_NXZ 00400008     Stage.obj
 0002:fffd4008       __ehfuncinfo$??0?$basic_string@DU?$char_traits@D@std@@V?$allocator@D@2@@std@@QAE@QBDI@Z 00400008     HUD.obj
 0002:fffd4008       __ehfuncinfo$?uflow@?$basic_filebuf@DU?$char_traits@D@std@@@std@@MAEHXZ 00400008     Stage.obj
 0001:fffff008       __ehhandler$??$?0PADX@?$basic_string@DU?$char_traits@D@std@@V?$allocator@D@2@@std@@QAE@PAD0ABV?$allocator@D@1@@Z 00400008 f   HUD.obj
 0001:fffff008       __ehhandler$??0?$basic_string@DU?$char_traits@D@std@@V?$allocator@D@2@@std@@QAE@QBD@Z 00400008 f   Stage.obj
 0001:fffff008       __ehhandler$??$?0PADX@?$basic_string@DU?$char_traits@D@std@@V?$allocator@D@2@@std@@QAE@PAD0ABV?$allocator@D@1@@Z 00400008 f   HealthBar.obj
 0001:fffff009       __ehhandler$??$use_facet@V?$codecvt@DDU_Mbstatet@@@std@@@std@@YAABV?$codecvt@DDU_Mbstatet@@@0@ABVlocale@0@@Z 00400009 f   Stage.obj
 0001:fffff009       __ehhandler$??0?$basic_filebuf@DU?$char_traits@D@std@@@std@@QAE@PAU_iobuf@@@Z 00400009 f   Stage.obj
 0002:fffd4018       __ehfuncinfo$??0?$basic_ifstream@DU?$char_traits@D@std@@@std@@QAE@PBDHH@Z 00400018     Stage.obj
 0001:fffff01d       __unwindfunclet$??0?$basic_ifstream@DU?$char_traits@D@std@@@std@@QAE@PBDHH@Z$1 0040001d f   Stage.obj
 0001:fffff029       __unwindfunclet$??0?$basic_ifstream@DU?$char_traits@D@std@@@std@@QAE@PBDHH@Z$2 00400029 f   Stage.obj
 0001:fffff034       __ehhandler$??0?$basic_ifstream@DU?$char_traits@D@std@@@std@@QAE@PBDHH@Z 00400034 f   Stage.obj
 0001:00002693       ??__E_Fac_tidy_reg@std@@YAXXZ 00403693 f   msvcprt:locale0_implib.obj
 0001:00004570       ??$_Reallocate_for@V<lambda_9366063389c5f42a00a5088cf24e69de>@@PBD@?$basic_string@DU?$char_traits@D@std@@V?$allocator@D@2@@std@@QAEAAV01@IV<lambda_9366063389c5f42a00a5088cf24e69de>@@PBD@Z 00405570 f   Boss.obj
 0001:00004a70       ??R<lambda_9366063389c5f42a00a5088cf24e69de>@@QBE@QADIQBD@Z 00405a70 f   Boss.obj
 0001:00005b60       ??$_Reallocate_for@V<lambda_9366063389c5f42a00a5088cf24e69de>@@PBD@?$basic_string@DU?$char_traits@D@std@@V?$allocator@D@2@@std@@QAEAAV01@IV<lambda_9366063389c5f42a00a5088cf24e69de>@@PBD@Z 00406b60 f   ControlledObject.obj
 0001:00005c80       ??$_Reallocate_grow_by@V<lambda_4d79bb85f269e6e8002a4599002d832c>@@IPBDI@?$basic_string@DU?$char_traits@D@std@@V?$allocator@D@2@@std@@QAEAAV01@IV<lambda_4d79bb85f269e6e8002a4599002d832c>@@IPBDI@Z 00406c80 f   ControlledObject.obj
 0001:00005e00       ??$_Reallocate_grow_by@V<lambda_ab246b20b9526e2ef7792587e4298a77>@@PBDI@?$basic_string@DU?$char_traits@D@std@@V?$allocator@D@2@@std@@QAEAAV01@IV<lambda_ab246b20b9526e2ef7792587e4298a77>@@PBDI@Z 00406e00 f   ControlledObject.obj
 0001:00006230       ??R<lambda_4d79bb85f269e6e8002a4599002d832c>@@QBE@QADQBDII1I@Z 00407230 f   ControlledObject.obj
 0001:000062b0       ??R<lambda_9366063389c5f42a00a5088cf24e69de>@@QBE@QADIQBD@Z 004072b0 f   ControlledObject.obj
 0001:00006300       ??R<lambda_ab246b20b9526e2ef7792587e4298a77>@@QBE@QADQBDI1I@Z 00407300 f   ControlledObject.obj
 0001:00008610       ??$_Reallocate_for@V<lambda_9366063389c5f42a00a5088cf24e69de>@@PBD@?$basic_string@DU?$char_traits@D@std@@V?$allocator@D@2@@std@@QAEAAV01@IV<lambda_9366063389c5f42a00a5088cf24e69de>@@PBD@Z 00409610 f   HealthBar.obj
 0001:00008750       ??R<lambda_9366063389c5f42a00a5088cf24e69de>@@QBE@QADIQBD@Z 00409750 f   HealthBar.obj
 0001:00008f00       ??$_Reallocate_for@V<lambda_9366063389c5f42a00a5088cf24e69de>@@PBD@?$basic_string@DU?$char_traits@D@std@@V?$allocator@D@2@@std@@QAEAAV01@IV<lambda_9366063389c5f42a00a5088cf24e69de>@@PBD@Z 00409f00 f   HUD.obj
 0001:00009020       ??$_Reallocate_grow_by@V<lambda_4d79bb85f269e6e8002a4599002d832c>@@IPBDI@?$basic_string@DU?$char_traits@D@std@@V?$allocator@D@2@@std@@QAEAAV01@IV<lambda_4d79bb85f269e6e8002a4599002d832c>@@IPBDI@Z 0040a020 f   HUD.obj
 0001:000091a0       ??$_Reallocate_grow_by@V<lambda_ab246b20b9526e2ef7792587e4298a77>@@PBDI@?$basic_string@DU?$char_traits@D@std@@V?$allocator@D@2@@std@@QAEAAV01@IV<lambda_ab246b20b9526e2ef7792587e4298a77>@@PBDI@Z 0040a1a0 f   HUD.obj
 0001:00009340       ??R<lambda_4d79bb85f269e6e8002a4599002d832c>@@QBE@QADQBDII1I@Z 0040a340 f   HUD.obj
 0001:000093c0       ??R<lambda_9366063389c5f42a00a5088cf24e69de>@@QBE@QADIQBD@Z 0040a3c0 f   HUD.obj
 0001:00009410       ??R<lambda_ab246b20b9526e2ef7792587e4298a77>@@QBE@QADQBDI1I@Z 0040a410 f   HUD.obj
 0001:00009580       _time                      0040a580 f   mainfunction.obj
 0001:0000be00       $LN46                      0040ce00     BaseEngine.obj
 0001:0000f154       $LN45                      00410154     BaseEngine.obj
 0001:0000f170       $LN44                      00410170     BaseEngine.obj
 0001:0000f1e8       $LN46                      004101e8     BaseEngine.obj
 0001:000114f0       ??$_Reallocate_for@V<lambda_9366063389c5f42a00a5088cf24e69de>@@PBD@?$basic_string@DU?$char_traits@D@std@@V?$allocator@D@2@@std@@QAEAAV01@IV<lambda_9366063389c5f42a00a5088cf24e69de>@@PBD@Z 004124f0 f   Missile.obj
 0001:00011630       ??R<lambda_9366063389c5f42a00a5088cf24e69de>@@QBE@QADIQBD@Z 00412630 f   Missile.obj
 0001:000121d0       _memcpy_s                  004131d0 f   PsyhshEngine.obj
 0001:00013430       ??$_Reallocate_for@V<lambda_9366063389c5f42a00a5088cf24e69de>@@PBD@?$basic_string@DU?$char_traits@D@std@@V?$allocator@D@2@@std@@QAEAAV01@IV<lambda_9366063389c5f42a00a5088cf24e69de>@@PBD@Z 00414430 f   PsyhshEngine.obj
 0001:00013550       ??$_Reallocate_for@V<lambda_c6753c90be971fc9cc00b4f35f237a75>@@D@?$basic_string@DU?$char_traits@D@std@@V?$allocator@D@2@@std@@QAEAAV01@IV<lambda_c6753c90be971fc9cc00b4f35f237a75>@@D@Z 00414550 f   PsyhshEngine.obj
 0001:00013670       ??$_Reallocate_grow_by@V<lambda_4d79bb85f269e6e8002a4599002d832c>@@IPBDI@?$basic_string@DU?$char_traits@D@std@@V?$allocator@D@2@@std@@QAEAAV01@IV<lambda_4d79bb85f269e6e8002a4599002d832c>@@IPBDI@Z 00414670 f   PsyhshEngine.obj
 0001:000137f0       ??$_Reallocate_grow_by@V<lambda_ab246b20b9526e2ef7792587e4298a77>@@PBDI@?$basic_string@DU?$char_traits@D@std@@V?$allocator@D@2@@std@@QAEAAV01@IV<lambda_ab246b20b9526e2ef7792587e4298a77>@@PBDI@Z 004147f0 f   PsyhshEngine.obj
 0001:00013970       ??$_Reallocate_grow_by@V<lambda_c1b8c41cb4019640539cfd828748c4d4>@@ID@?$basic_string@DU?$char_traits@D@std@@V?$allocator@D@2@@std@@QAEAAV01@IV<lambda_c1b8c41cb4019640539cfd828748c4d4>@@ID@Z 00414970 f   PsyhshEngine.obj
 0001:00013db3       __catch$??$emplace_back@PAVCreature@@@?$vector@PAVCreature@@V?$allocator@PAVCreature@@@std@@@std@@QAE@$$QAPAVCreature@@@Z$0 00414db3 f i PsyhshEngine.obj
 0001:00014000       ??0<lambda_810019f6bc44544abd3921685797a01a>@@QAE@AAV?$basic_string@DU?$char_traits@D@std@@V?$allocator@D@2@@std@@@Z 00415000 f   PsyhshEngine.obj
 0001:00014890       ??R<lambda_4d79bb85f269e6e8002a4599002d832c>@@QBE@QADQBDII1I@Z 00415890 f   PsyhshEngine.obj
 0001:00014910       ??R<lambda_810019f6bc44544abd3921685797a01a>@@QBE_NXZ 00415910 f   PsyhshEngine.obj
 0001:000149d0       ??R<lambda_9366063389c5f42a00a5088cf24e69de>@@QBE@QADIQBD@Z 004159d0 f   PsyhshEngine.obj
 0001:00014a20       ??R<lambda_ab246b20b9526e2ef7792587e4298a77>@@QBE@QADQBDI1I@Z 00415a20 f   PsyhshEngine.obj
 0001:00014a90       ??R<lambda_c1b8c41cb4019640539cfd828748c4d4>@@QBE@QADQBDIID@Z 00415a90 f   PsyhshEngine.obj
 0001:00014b00       ??R<lambda_c6753c90be971fc9cc00b4f35f237a75>@@QBE@QADID@Z 00415b00 f   PsyhshEngine.obj
 0001:00016c3f       __catch$?IsTreeDead@PsyhshTileManager@@QBE_NU?$pair@HH@std@@@Z$0 00417c3f f   PsyhshTileManager.obj
 0001:00016d02       __catch$?SetTreeDead@PsyhshTileManager@@QAEXU?$pair@HH@std@@_N@Z$0 00417d02 f   PsyhshTileManager.obj
 0001:0001711f       __catch$??$_Buynode@U?$pair@$$CBU?$pair@HH@std@@_N@std@@@?$_Tree_comp_alloc@V?$_Tmap_traits@U?$pair@HH@std@@_NU?$less@U?$pair@HH@std@@@2@V?$allocator@U?$pair@$$CBU?$pair@HH@std@@_N@std@@@2@$0A@@std@@@std@@QAEPAU?$_Tree_node@U?$pair@$$CBU?$pair@HH@std@@_N@std@@PAX@1@$$QAU?$pair@$$CBU?$pair@HH@std@@_N@1@@Z$0 0041811f f i PsyhshTileManager.obj
 0001:000177e4       __catch$??$_Insert_nohint@U?$pair@$$CBU?$pair@HH@std@@_N@std@@U_Not_a_node_tag@2@@?$_Tree@V?$_Tmap_traits@U?$pair@HH@std@@_NU?$less@U?$pair@HH@std@@@2@V?$allocator@U?$pair@$$CBU?$pair@HH@std@@_N@std@@@2@$0A@@std@@@std@@IAE?AU?$pair@V?$_Tree_iterator@V?$_Tree_val@U?$_Tree_simple_types@U?$pair@$$CBU?$pair@HH@std@@_N@std@@@std@@@std@@@std@@_N@1@_N$$QAU?$pair@$$CBU?$pair@HH@std@@_N@1@U_Not_a_node_tag@1@@Z$0 004187e4 f i PsyhshTileManager.obj
 0001:00017ebd       __catch$?_Buyheadnode@?$_Tree_comp_alloc@V?$_Tmap_traits@U?$pair@HH@std@@_NU?$less@U?$pair@HH@std@@@2@V?$allocator@U?$pair@$$CBU?$pair@HH@std@@_N@std@@@2@$0A@@std@@@std@@QAEPAU?$_Tree_node@U?$pair@$$CBU?$pair@HH@std@@_N@std@@PAX@2@XZ$0 00418ebd f i PsyhshTileManager.obj
 0001:0001800c       __catch$?_Buynode0@?$_Tree_comp_alloc@V?$_Tmap_traits@U?$pair@HH@std@@_NU?$less@U?$pair@HH@std@@@2@V?$allocator@U?$pair@$$CBU?$pair@HH@std@@_N@std@@@2@$0A@@std@@@std@@QAEPAU?$_Tree_node@U?$pair@$$CBU?$pair@HH@std@@_N@std@@PAX@2@XZ$0 0041900c f i PsyhshTileManager.obj
 0001:0001850c       $LN17                      0041950c     SimpleDemo.obj
 0001:0001990c       $LN14                      0041a90c     Sprite.obj
 0001:00019b40       ??$_Reallocate_grow_by@V<lambda_67d87d4aa1269033985980465fd1d824>@@$$V@?$basic_string@DU?$char_traits@D@std@@V?$allocator@D@2@@std@@QAEAAV01@IV<lambda_67d87d4aa1269033985980465fd1d824>@@@Z 0041ab40 f   Sprite.obj
 0001:00019cb0       ??$_Reallocate_grow_by@V<lambda_ab246b20b9526e2ef7792587e4298a77>@@PBDI@?$basic_string@DU?$char_traits@D@std@@V?$allocator@D@2@@std@@QAEAAV01@IV<lambda_ab246b20b9526e2ef7792587e4298a77>@@PBDI@Z 0041acb0 f   Sprite.obj
 0001:00019e30       ??R<lambda_67d87d4aa1269033985980465fd1d824>@@QBE@QADQBDI@Z 0041ae30 f   Sprite.obj
 0001:00019e60       ??R<lambda_ab246b20b9526e2ef7792587e4298a77>@@QBE@QADQBDI1I@Z 0041ae60 f   Sprite.obj
 0001:0001a0c0       _memcpy_s                  0041b0c0 f   Stage.obj
 0001:0001a3a7       __catch$?Load@Stage@@QAEIAAVPsyhshEngine@@@Z$0 0041b3a7 f   Stage.obj
 0001:0001a536       __catch$?Load@Stage@@QAEIAAVPsyhshEngine@@@Z$2 0041b536 f   Stage.obj
 0001:0001acfa       __catch$??$?6U?$char_traits@D@std@@@std@@YAAAV?$basic_ostream@DU?$char_traits@D@std@@@0@AAV10@PBD@Z$0 0041bcfa f i Stage.obj
 0001:0001b0b0       ??$_Reallocate_for@V<lambda_9366063389c5f42a00a5088cf24e69de>@@PBD@?$basic_string@DU?$char_traits@D@std@@V?$allocator@D@2@@std@@QAEAAV01@IV<lambda_9366063389c5f42a00a5088cf24e69de>@@PBD@Z 0041c0b0 f   Stage.obj
 0001:0001b1d0       ??$_Reallocate_for@V<lambda_c6753c90be971fc9cc00b4f35f237a75>@@D@?$basic_string@DU?$char_traits@D@std@@V?$allocator@D@2@@std@@QAEAAV01@IV<lambda_c6753c90be971fc9cc00b4f35f237a75>@@D@Z 0041c1d0 f   Stage.obj
 0001:0001b2f0       ??$_Reallocate_grow_by@V<lambda_15711c68e099a15a58f4d77303cb286d>@@D@?$basic_string@DU?$char_traits@D@std@@V?$allocator@D@2@@std@@QAEAAV01@IV<lambda_15711c68e099a15a58f4d77303cb286d>@@D@Z 0041c2f0 f   Stage.obj
 0001:0001b460       ??$_Reallocate_grow_by@V<lambda_c1b8c41cb4019640539cfd828748c4d4>@@ID@?$basic_string@DU?$char_traits@D@std@@V?$allocator@D@2@@std@@QAEAAV01@IV<lambda_c1b8c41cb4019640539cfd828748c4d4>@@ID@Z 0041c460 f   Stage.obj
 0001:0001bb05       __catch$??$_Uninitialized_move_al_unchecked@PAV?$basic_string@DU?$char_traits@D@std@@V?$allocator@D@2@@std@@PAV12@V?$allocator@V?$basic_string@DU?$char_traits@D@std@@V?$allocator@D@2@@std@@@2@@std@@YAPAV?$basic_string@DU?$char_traits@D@std@@V?$allocator@D@2@@0@PAV10@00AAV?$allocator@V?$basic_string@DU?$char_traits@D@std@@V?$allocator@D@2@@std@@@0@U_General_ptr_iterator_tag@0@U_Unused_parameter@0@@Z$0 0041cb05 f i Stage.obj
 0001:0001be51       __catch$??$emplace_back@ABV?$basic_string@DU?$char_traits@D@std@@V?$allocator@D@2@@std@@@?$vector@V?$basic_string@DU?$char_traits@D@std@@V?$allocator@D@2@@std@@V?$allocator@V?$basic_string@DU?$char_traits@D@std@@V?$allocator@D@2@@std@@@2@@std@@QAE@ABV?$basic_string@DU?$char_traits@D@std@@V?$allocator@D@2@@1@@Z$0 0041ce51 f i Stage.obj
 0001:0001c075       __catch$??$emplace_back@ABV?$basic_string@DU?$char_traits@D@std@@V?$allocator@D@2@@std@@AAII@?$vector@V?$basic_string@DU?$char_traits@D@std@@V?$allocator@D@2@@std@@V?$allocator@V?$basic_string@DU?$char_traits@D@std@@V?$allocator@D@2@@std@@@2@@std@@QAE@ABV?$basic_string@DU?$char_traits@D@std@@V?$allocator@D@2@@1@AAI$$QAI@Z$0 0041d075 f i Stage.obj
 0001:0001c34d       __catch$??$getline@DU?$char_traits@D@std@@V?$allocator@D@2@@std@@YAAAV?$basic_istream@DU?$char_traits@D@std@@@0@$$QAV10@AAV?$basic_string@DU?$char_traits@D@std@@V?$allocator@D@2@@0@D@Z$0 0041d34d f i Stage.obj
 0001:0001cd30       ??R<lambda_15711c68e099a15a58f4d77303cb286d>@@QBE@QADQBDID@Z 0041dd30 f   Stage.obj
 0001:0001cda0       ??R<lambda_9366063389c5f42a00a5088cf24e69de>@@QBE@QADIQBD@Z 0041dda0 f   Stage.obj
 0001:0001cdf0       ??R<lambda_c1b8c41cb4019640539cfd828748c4d4>@@QBE@QADQBDIID@Z 0041ddf0 f   Stage.obj
 0001:0001ce60       ??R<lambda_c6753c90be971fc9cc00b4f35f237a75>@@QBE@QADID@Z 0041de60 f   Stage.obj
 0001:0001d66b       __catch$?_Reallocate_exactly@?$vector@V?$basic_string@DU?$char_traits@D@std@@V?$allocator@D@2@@std@@V?$allocator@V?$basic_string@DU?$char_traits@D@std@@V?$allocator@D@2@@std@@@2@@std@@AAEXI@Z$0 0041e66b f i Stage.obj
 0001:0001e600       $LN23                      0041f600     BouncingBall.obj
 0001:0001fb70       $LN26                      00420b70     BouncingBallMain.obj
 0001:00021a98       $LN11                      00422a98     Demo3Object.obj
 0001:00021b08       $LN11                      00422b08     Demo3Object.obj
 0001:00021fec       $LN25                      00422fec     Demo3ObjectFinished.obj
 0001:00021ff4       $LN21                      00422ff4     Demo3ObjectFinished.obj
 0001:000221b8       $LN11                      004231b8     Demo3ObjectFinished.obj
 0001:00022228       $LN11                      00423228     Demo3ObjectFinished.obj
 0001:00022414       $LN8                       00423414     Demo3TileManager.obj
 0001:0002241c       $LN7                       0042341c     Demo3TileManager.obj
 0001:00023454       $LN32                      00424454     Demo4Object.obj
 0001:0002345c       $LN27                      0042445c     Demo4Object.obj
 0001:000236b8       $LN11                      004246b8     Demo4Object.obj
 0001:00023728       $LN11                      00424728     Demo4Object.obj
 0001:00023914       $LN8                       00424914     Demo4TileManager.obj
 0001:0002391c       $LN7                       0042491c     Demo4TileManager.obj
 0001:00023c9c       ?pre_c_initialization@@YAHXZ 00424c9c f   MSVCRT:exe_main.obj
 0001:00023d69       ?post_pgo_initialization@@YAHXZ 00424d69 f   MSVCRT:exe_main.obj
 0001:00023d73       ?pre_cpp_initialization@@YAXXZ 00424d73 f   MSVCRT:exe_main.obj
 0001:00023d89       ?__scrt_common_main@@YAHXZ 00424d89 f   MSVCRT:exe_main.obj
 0001:00023d95       ?__scrt_common_main_seh@@YAHXZ 00424d95 f   MSVCRT:exe_main.obj
 0001:00023f7e       ?invoke_main@@YAHXZ        00424f7e f   MSVCRT:exe_main.obj
 0001:000240d8       ?find_pe_section@@YAPAU_IMAGE_SECTION_HEADER@@QAEI@Z 004250d8 f   MSVCRT:utility.obj
 0001:0002412d       ?is_potentially_valid_image_base@@YA_NQAX@Z 0042512d f   MSVCRT:utility.obj
 0001:0002456e       ___get_entropy             0042556e f   MSVCRT:gs_support.obj
 0001:000249b0       $$000000                   004259b0     MSVCRT:_sehprolg4_.obj
 0001:000253b0       _ParseCommandLine          004263b0 f   SDL2main:SDL_windows_main.obj
 0001:000254d0       _UnEscapeQuotes            004264d0 f   SDL2main:SDL_windows_main.obj
 0001:00026f60       __unwindfunclet$??0Boss@@QAE@PAVBaseEngine@@U?$pair@HH@std@@@Z$0 00427f60 f   Boss.obj
 0001:00026f68       __unwindfunclet$??0Boss@@QAE@PAVBaseEngine@@U?$pair@HH@std@@@Z$1 00427f68 f   Boss.obj
 0001:00026f70       __ehhandler$??0Boss@@QAE@PAVBaseEngine@@U?$pair@HH@std@@@Z 00427f70 f   Boss.obj
 0001:00026fa0       __unwindfunclet$??0?$basic_string@DU?$char_traits@D@std@@V?$allocator@D@2@@std@@QAE@QBD@Z$0 00427fa0 f   Boss.obj
 0001:00026fa8       __ehhandler$??0?$basic_string@DU?$char_traits@D@std@@V?$allocator@D@2@@std@@QAE@QBD@Z 00427fa8 f   Boss.obj
 0001:00026fd0       __ehhandler$??1?$basic_string@DU?$char_traits@D@std@@V?$allocator@D@2@@std@@QAE@XZ 00427fd0 f   Boss.obj
 0001:00027000       __unwindfunclet$??0ControlledObject@@QAE@PAVBaseEngine@@@Z$0 00428000 f   ControlledObject.obj
 0001:00027008       __ehhandler$??0ControlledObject@@QAE@PAVBaseEngine@@@Z 00428008 f   ControlledObject.obj
 0001:00027023       __unwindfunclet$?Draw@ControlledObject@@UAEXXZ$0 00428023 f   ControlledObject.obj
 0001:0002702e       __unwindfunclet$?Draw@ControlledObject@@UAEXXZ$1 0042802e f   ControlledObject.obj
 0001:00027036       __unwindfunclet$?Draw@ControlledObject@@UAEXXZ$2 00428036 f   ControlledObject.obj
 0001:0002703e       __unwindfunclet$?Draw@ControlledObject@@UAEXXZ$3 0042803e f   ControlledObject.obj
 0001:00027046       __unwindfunclet$?Draw@ControlledObject@@UAEXXZ$4 00428046 f   ControlledObject.obj
 0001:0002704e       __ehhandler$?Draw@ControlledObject@@UAEXXZ 0042804e f   ControlledObject.obj
 0001:000270a0       __unwindfunclet$??$?0PADX@?$basic_string@DU?$char_traits@D@std@@V?$allocator@D@2@@std@@QAE@PAD0ABV?$allocator@D@1@@Z$0 004280a0 f   ControlledObject.obj
 0001:000270a8       __ehhandler$??$?0PADX@?$basic_string@DU?$char_traits@D@std@@V?$allocator@D@2@@std@@QAE@PAD0ABV?$allocator@D@1@@Z 004280a8 f   ControlledObject.obj
 0001:000270d0       __ehhandler$??0?$basic_string@DU?$char_traits@D@std@@V?$allocator@D@2@@std@@QAE@$$QAV01@@Z 004280d0 f   ControlledObject.obj
 0001:00027100       __unwindfunclet$??0?$basic_string@DU?$char_traits@D@std@@V?$allocator@D@2@@std@@QAE@QBDI@Z$0 00428100 f   ControlledObject.obj
 0001:00027108       __ehhandler$??0?$basic_string@DU?$char_traits@D@std@@V?$allocator@D@2@@std@@QAE@QBDI@Z 00428108 f   ControlledObject.obj
 0001:00027130       __ehhandler$?_Assign_rv_contents_with_alloc_always_equal@?$basic_string@DU?$char_traits@D@std@@V?$allocator@D@2@@std@@QAEX$$QAV12@U?$integral_constant@_N$00@2@@Z 00428130 f   ControlledObject.obj
 0001:00027160       __ehhandler$?c_str@?$basic_string@DU?$char_traits@D@std@@V?$allocator@D@2@@std@@QBEPBDXZ 00428160 f   ControlledObject.obj
 0001:00027190       __unwindfunclet$??0Creature@@QAE@PAVBaseEngine@@ABV?$basic_string@DU?$char_traits@D@std@@V?$allocator@D@2@@std@@IABU?$pair@HH@3@IIH_N3@Z$0 00428190 f   Creature.obj
 0001:00027198       __unwindfunclet$??0Creature@@QAE@PAVBaseEngine@@ABV?$basic_string@DU?$char_traits@D@std@@V?$allocator@D@2@@std@@IABU?$pair@HH@3@IIH_N3@Z$1 00428198 f   Creature.obj
 0001:000271a3       __ehhandler$??0Creature@@QAE@PAVBaseEngine@@ABV?$basic_string@DU?$char_traits@D@std@@V?$allocator@D@2@@std@@IABU?$pair@HH@3@IIH_N3@Z 004281a3 f   Creature.obj
 0001:000271d0       __unwindfunclet$??0Cursor@@QAE@PAVBaseEngine@@@Z$0 004281d0 f   Cursor.obj
 0001:000271d8       __unwindfunclet$??0Cursor@@QAE@PAVBaseEngine@@@Z$1 004281d8 f   Cursor.obj
 0001:000271e3       __unwindfunclet$??0Cursor@@QAE@PAVBaseEngine@@@Z$2 004281e3 f   Cursor.obj
 0001:000271ee       __ehhandler$??0Cursor@@QAE@PAVBaseEngine@@@Z 004281ee f   Cursor.obj
 0001:00027220       __unwindfunclet$??0HealthBar@@QAE@PAVBaseEngine@@@Z$0 00428220 f   HealthBar.obj
 0001:00027228       __ehhandler$??0HealthBar@@QAE@PAVBaseEngine@@@Z 00428228 f   HealthBar.obj
 0001:00027243       __unwindfunclet$?Draw@HealthBar@@UAEXXZ$0 00428243 f   HealthBar.obj
 0001:0002724b       __ehhandler$?Draw@HealthBar@@UAEXXZ 0042824b f   HealthBar.obj
 0001:00027290       __unwindfunclet$??0HUD@@QAE@PAVBaseEngine@@@Z$0 00428290 f   HUD.obj
 0001:00027298       __ehhandler$??0HUD@@QAE@PAVBaseEngine@@@Z 00428298 f   HUD.obj
 0001:000272b3       __unwindfunclet$?Draw@HUD@@UAEXXZ$0 004282b3 f   HUD.obj
 0001:000272bb       __unwindfunclet$?Draw@HUD@@UAEXXZ$1 004282bb f   HUD.obj
 0001:000272c3       __unwindfunclet$?Draw@HUD@@UAEXXZ$2 004282c3 f   HUD.obj
 0001:000272cb       __unwindfunclet$?Draw@HUD@@UAEXXZ$3 004282cb f   HUD.obj
 0001:000272d6       __unwindfunclet$?Draw@HUD@@UAEXXZ$4 004282d6 f   HUD.obj
 0001:000272e1       __unwindfunclet$?Draw@HUD@@UAEXXZ$5 004282e1 f   HUD.obj
 0001:000272e9       __unwindfunclet$?Draw@HUD@@UAEXXZ$6 004282e9 f   HUD.obj
 0001:000272f4       __unwindfunclet$?Draw@HUD@@UAEXXZ$7 004282f4 f   HUD.obj
 0001:000272ff       __unwindfunclet$?Draw@HUD@@UAEXXZ$8 004282ff f   HUD.obj
 0001:0002730a       __ehhandler$?Draw@HUD@@UAEXXZ 0042830a f   HUD.obj
 0001:00027360       __ehhandler$??$_Freenode0@V?$allocator@U?$_Tree_node@U?$pair@$$CBU?$pair@HH@std@@_N@std@@PAX@std@@@std@@@?$_Tree_node@U?$pair@$$CBU?$pair@HH@std@@_N@std@@PAX@std@@SAXAAV?$allocator@U?$_Tree_node@U?$pair@$$CBU?$pair@HH@std@@_N@std@@PAX@std@@@1@PAU01@@Z 00428360 f   mainfunction.obj
 0001:00027390       __ehhandler$??1?$_Tree@V?$_Tmap_traits@U?$pair@HH@std@@_NU?$less@U?$pair@HH@std@@@2@V?$allocator@U?$pair@$$CBU?$pair@HH@std@@_N@std@@@2@$0A@@std@@@std@@QAE@XZ 00428390 f   mainfunction.obj
 0001:000273c0       __ehhandler$??1?$_Tree_comp_alloc@V?$_Tmap_traits@U?$pair@HH@std@@_NU?$less@U?$pair@HH@std@@@2@V?$allocator@U?$pair@$$CBU?$pair@HH@std@@_N@std@@@2@$0A@@std@@@std@@QAE@XZ 004283c0 f   mainfunction.obj
 0001:000273f0       __ehhandler$??1?$vector@PAVCreature@@V?$allocator@PAVCreature@@@std@@@std@@QAE@XZ 004283f0 f   mainfunction.obj
 0001:00027420       __ehhandler$?begin@?$_Tree@V?$_Tmap_traits@U?$pair@HH@std@@_NU?$less@U?$pair@HH@std@@@2@V?$allocator@U?$pair@$$CBU?$pair@HH@std@@_N@std@@@2@$0A@@std@@@std@@QAE?AV?$_Tree_iterator@V?$_Tree_val@U?$_Tree_simple_types@U?$pair@$$CBU?$pair@HH@std@@_N@std@@@std@@@std@@@2@XZ 00428420 f   mainfunction.obj
 0001:00027450       __ehhandler$?clear@?$_Tree@V?$_Tmap_traits@U?$pair@HH@std@@_NU?$less@U?$pair@HH@std@@@2@V?$allocator@U?$pair@$$CBU?$pair@HH@std@@_N@std@@@2@$0A@@std@@@std@@QAEXXZ 00428450 f   mainfunction.obj
 0001:00027480       __ehhandler$?end@?$_Tree@V?$_Tmap_traits@U?$pair@HH@std@@_NU?$less@U?$pair@HH@std@@@2@V?$allocator@U?$pair@$$CBU?$pair@HH@std@@_N@std@@@2@$0A@@std@@@std@@QAE?AV?$_Tree_iterator@V?$_Tree_val@U?$_Tree_simple_types@U?$pair@$$CBU?$pair@HH@std@@_N@std@@@std@@@std@@@2@XZ 00428480 f   mainfunction.obj
 0001:000274b0       __ehhandler$??1BaseEngine@@UAE@XZ 004284b0 f   BaseEngine.obj
 0001:000274e0       __unwindfunclet$?GetFont@FontManager@@QAEPAVFont@@PBDH@Z$0 004284e0 f   FontManager.obj
 0001:000274ef       __ehhandler$?GetFont@FontManager@@QAEPAVFont@@PBDH@Z 004284ef f   FontManager.obj
 0001:00027520       __unwindfunclet$??0Missile@@QAE@PAVBaseEngine@@U?$pair@HH@std@@@Z$0 00428520 f   Missile.obj
 0001:00027528       __unwindfunclet$??0Missile@@QAE@PAVBaseEngine@@U?$pair@HH@std@@@Z$1 00428528 f   Missile.obj
 0001:00027530       __ehhandler$??0Missile@@QAE@PAVBaseEngine@@U?$pair@HH@std@@@Z 00428530 f   Missile.obj
 0001:00027570       __unwindfunclet$??0Player@@QAE@PAVBaseEngine@@ABV?$basic_string@DU?$char_traits@D@std@@V?$allocator@D@2@@std@@II@Z$0 00428570 f   Player.obj
 0001:00027578       __unwindfunclet$??0Player@@QAE@PAVBaseEngine@@ABV?$basic_string@DU?$char_traits@D@std@@V?$allocator@D@2@@std@@II@Z$1 00428578 f   Player.obj
 0001:00027583       __ehhandler$??0Player@@QAE@PAVBaseEngine@@ABV?$basic_string@DU?$char_traits@D@std@@V?$allocator@D@2@@std@@II@Z 00428583 f   Player.obj
 0001:000275b0       __unwindfunclet$??0PsyhshEngine@@QAE@XZ$0 004285b0 f   PsyhshEngine.obj
 0001:000275b8       __unwindfunclet$??0PsyhshEngine@@QAE@XZ$1 004285b8 f   PsyhshEngine.obj
 0001:000275ca       __unwindfunclet$??0PsyhshEngine@@QAE@XZ$2 004285ca f   PsyhshEngine.obj
 0001:000275e3       __unwindfunclet$??0PsyhshEngine@@QAE@XZ$3 004285e3 f   PsyhshEngine.obj
 0001:000275f2       __unwindfunclet$??0PsyhshEngine@@QAE@XZ$4 004285f2 f   PsyhshEngine.obj
 0001:00027604       __unwindfunclet$??0PsyhshEngine@@QAE@XZ$5 00428604 f   PsyhshEngine.obj
 0001:00027616       __unwindfunclet$??0PsyhshEngine@@QAE@XZ$6 00428616 f   PsyhshEngine.obj
 0001:00027624       __ehhandler$??0PsyhshEngine@@QAE@XZ 00428624 f   PsyhshEngine.obj
 0001:00027649       __unwindfunclet$?InitialiseObjects@PsyhshEngine@@UAEHXZ$0 00428649 f   PsyhshEngine.obj
 0001:0002765b       __unwindfunclet$?InitialiseObjects@PsyhshEngine@@UAEHXZ$1 0042865b f   PsyhshEngine.obj
 0001:00027674       __unwindfunclet$?InitialiseObjects@PsyhshEngine@@UAEHXZ$2 00428674 f   PsyhshEngine.obj
 0001:00027683       __unwindfunclet$?InitialiseObjects@PsyhshEngine@@UAEHXZ$3 00428683 f   PsyhshEngine.obj
 0001:00027692       __unwindfunclet$?InitialiseObjects@PsyhshEngine@@UAEHXZ$4 00428692 f   PsyhshEngine.obj
 0001:000276a1       __ehhandler$?InitialiseObjects@PsyhshEngine@@UAEHXZ 004286a1 f   PsyhshEngine.obj
 0001:000276c9       __unwindfunclet$?LoadStage@PsyhshEngine@@QAEXABV?$basic_string@DU?$char_traits@D@std@@V?$allocator@D@2@@std@@@Z$0 004286c9 f   PsyhshEngine.obj
 0001:000276d1       __ehhandler$?LoadStage@PsyhshEngine@@QAEXABV?$basic_string@DU?$char_traits@D@std@@V?$allocator@D@2@@std@@@Z 004286d1 f   PsyhshEngine.obj
 0001:000276ec       __unwindfunclet$?NextStage@PsyhshEngine@@QAEXXZ$0 004286ec f   PsyhshEngine.obj
 0001:000276f7       __unwindfunclet$?NextStage@PsyhshEngine@@QAEXXZ$1 004286f7 f   PsyhshEngine.obj
 0001:000276ff       __unwindfunclet$?NextStage@PsyhshEngine@@QAEXXZ$2 004286ff f   PsyhshEngine.obj
 0001:00027707       __unwindfunclet$?NextStage@PsyhshEngine@@QAEXXZ$3 00428707 f   PsyhshEngine.obj
 0001:0002770f       __unwindfunclet$?NextStage@PsyhshEngine@@QAEXXZ$4 0042870f f   PsyhshEngine.obj
 0001:00027717       __ehhandler$?NextStage@PsyhshEngine@@QAEXXZ 00428717 f   PsyhshEngine.obj
 0001:00027790       __ehhandler$??$emplace_back@PAVCreature@@@?$vector@PAVCreature@@V?$allocator@PAVCreature@@@std@@@std@@QAE@$$QAPAVCreature@@@Z 00428790 f   PsyhshEngine.obj
 0001:000277c0       __unwindfunclet$??$use_facet@V?$codecvt@DDU_Mbstatet@@@std@@@std@@YAABV?$codecvt@DDU_Mbstatet@@@0@ABVlocale@0@@Z$0 004287c0 f   PsyhshEngine.obj
 0001:000277c9       __ehhandler$??$use_facet@V?$codecvt@DDU_Mbstatet@@@std@@@std@@YAABV?$codecvt@DDU_Mbstatet@@@0@ABVlocale@0@@Z 004287c9 f   PsyhshEngine.obj
 0001:000277f0       __unwindfunclet$??0?$basic_filebuf@DU?$char_traits@D@std@@@std@@QAE@PAU_iobuf@@@Z$0 004287f0 f   PsyhshEngine.obj
 0001:000277f9       __ehhandler$??0?$basic_filebuf@DU?$char_traits@D@std@@@std@@QAE@PAU_iobuf@@@Z 004287f9 f   PsyhshEngine.obj
 0001:00027820       __unwindfunclet$??0?$basic_ifstream@DU?$char_traits@D@std@@@std@@QAE@PBDHH@Z$0 00428820 f   PsyhshEngine.obj
 0001:0002783d       __unwindfunclet$??0?$basic_ifstream@DU?$char_traits@D@std@@@std@@QAE@PBDHH@Z$1 0042883d f   PsyhshEngine.obj
 0001:00027849       __unwindfunclet$??0?$basic_ifstream@DU?$char_traits@D@std@@@std@@QAE@PBDHH@Z$2 00428849 f   PsyhshEngine.obj
 0001:00027854       __ehhandler$??0?$basic_ifstream@DU?$char_traits@D@std@@@std@@QAE@PBDHH@Z 00428854 f   PsyhshEngine.obj
 0001:00027890       __unwindfunclet$??0?$basic_string@DU?$char_traits@D@std@@V?$allocator@D@2@@std@@QAE@ID@Z$0 00428890 f   PsyhshEngine.obj
 0001:00027898       __ehhandler$??0?$basic_string@DU?$char_traits@D@std@@V?$allocator@D@2@@std@@QAE@ID@Z 00428898 f   PsyhshEngine.obj
 0001:000278c0       __ehhandler$??0?$basic_string@DU?$char_traits@D@std@@V?$allocator@D@2@@std@@QAE@XZ 004288c0 f   PsyhshEngine.obj
 0001:000278f0       __ehhandler$??0?$vector@PAVCreature@@V?$allocator@PAVCreature@@@std@@@std@@QAE@XZ 004288f0 f   PsyhshEngine.obj
 0001:00027920       __ehhandler$??1?$basic_filebuf@DU?$char_traits@D@std@@@std@@UAE@XZ 00428920 f   PsyhshEngine.obj
 0001:00027950       __ehhandler$??1locale@std@@QAE@XZ 00428950 f   PsyhshEngine.obj
 0001:00027980       __unwindfunclet$??R<lambda_810019f6bc44544abd3921685797a01a>@@QBE_NXZ$0 00428980 f   PsyhshEngine.obj
 0001:0002798b       __ehhandler$??R<lambda_810019f6bc44544abd3921685797a01a>@@QBE_NXZ 0042898b f   PsyhshEngine.obj
 0001:000279c0       __unwindfunclet$?_Endwrite@?$basic_filebuf@DU?$char_traits@D@std@@@std@@IAE_NXZ$0 004289c0 f   PsyhshEngine.obj
 0001:000279c8       __ehhandler$?_Endwrite@?$basic_filebuf@DU?$char_traits@D@std@@@std@@IAE_NXZ 004289c8 f   PsyhshEngine.obj
 0001:00027a00       __ehhandler$?begin@?$basic_string@DU?$char_traits@D@std@@V?$allocator@D@2@@std@@QAE?AV?$_String_iterator@V?$_String_val@U?$_Simple_types@D@std@@@std@@@2@XZ 00428a00 f   PsyhshEngine.obj
 0001:00027a30       __unwindfunclet$?open@?$basic_filebuf@DU?$char_traits@D@std@@@std@@QAEPAV12@PBDHH@Z$0 00428a30 f   PsyhshEngine.obj
 0001:00027a38       __ehhandler$?open@?$basic_filebuf@DU?$char_traits@D@std@@@std@@QAEPAV12@PBDHH@Z 00428a38 f   PsyhshEngine.obj
 0001:00027a60       __unwindfunclet$?overflow@?$basic_filebuf@DU?$char_traits@D@std@@@std@@MAEHH@Z$0 00428a60 f   PsyhshEngine.obj
 0001:00027a68       __ehhandler$?overflow@?$basic_filebuf@DU?$char_traits@D@std@@@std@@MAEHH@Z 00428a68 f   PsyhshEngine.obj
 0001:00027aa0       __unwindfunclet$?uflow@?$basic_filebuf@DU?$char_traits@D@std@@@std@@MAEHXZ$0 00428aa0 f   PsyhshEngine.obj
 0001:00027aa8       __ehhandler$?uflow@?$basic_filebuf@DU?$char_traits@D@std@@@std@@MAEHXZ 00428aa8 f   PsyhshEngine.obj
 0001:00027ae0       __unwindfunclet$??0PsyhshTileManager@@QAE@HH_N@Z$0 00428ae0 f   PsyhshTileManager.obj
 0001:00027ae8       __unwindfunclet$??0PsyhshTileManager@@QAE@HH_N@Z$1 00428ae8 f   PsyhshTileManager.obj
 0001:00027af3       __unwindfunclet$??0PsyhshTileManager@@QAE@HH_N@Z$2 00428af3 f   PsyhshTileManager.obj
 0001:00027afe       __unwindfunclet$??0PsyhshTileManager@@QAE@HH_N@Z$3 00428afe f   PsyhshTileManager.obj
 0001:00027b09       __ehhandler$??0PsyhshTileManager@@QAE@HH_N@Z 00428b09 f   PsyhshTileManager.obj
 0001:00027b24       __ehhandler$?IsTreeDead@PsyhshTileManager@@QBE_NU?$pair@HH@std@@@Z 00428b24 f   PsyhshTileManager.obj
 0001:00027b3f       __ehhandler$?SetTreeDead@PsyhshTileManager@@QAEXU?$pair@HH@std@@_N@Z 00428b3f f   PsyhshTileManager.obj
 0001:00027b80       __ehhandler$??$_Buynode@U?$pair@$$CBU?$pair@HH@std@@_N@std@@@?$_Tree_comp_alloc@V?$_Tmap_traits@U?$pair@HH@std@@_NU?$less@U?$pair@HH@std@@@2@V?$allocator@U?$pair@$$CBU?$pair@HH@std@@_N@std@@@2@$0A@@std@@@std@@QAEPAU?$_Tree_node@U?$pair@$$CBU?$pair@HH@std@@_N@std@@PAX@1@$$QAU?$pair@$$CBU?$pair@HH@std@@_N@1@@Z 00428b80 f   PsyhshTileManager.obj
 0001:00027bb0       __ehhandler$??$_Insert_nohint@U?$pair@$$CBU?$pair@HH@std@@_N@std@@U_Not_a_node_tag@2@@?$_Tree@V?$_Tmap_traits@U?$pair@HH@std@@_NU?$less@U?$pair@HH@std@@@2@V?$allocator@U?$pair@$$CBU?$pair@HH@std@@_N@std@@@2@$0A@@std@@@std@@IAE?AU?$pair@V?$_Tree_iterator@V?$_Tree_val@U?$_Tree_simple_types@U?$pair@$$CBU?$pair@HH@std@@_N@std@@@std@@@std@@@std@@_N@1@_N$$QAU?$pair@$$CBU?$pair@HH@std@@_N@1@U_Not_a_node_tag@1@@Z 00428bb0 f   PsyhshTileManager.obj
 0001:00027be0       __ehhandler$?_Buyheadnode@?$_Tree_comp_alloc@V?$_Tmap_traits@U?$pair@HH@std@@_NU?$less@U?$pair@HH@std@@@2@V?$allocator@U?$pair@$$CBU?$pair@HH@std@@_N@std@@@2@$0A@@std@@@std@@QAEPAU?$_Tree_node@U?$pair@$$CBU?$pair@HH@std@@_N@std@@PAX@2@XZ 00428be0 f   PsyhshTileManager.obj
 0001:00027c10       __ehhandler$?_Buynode0@?$_Tree_comp_alloc@V?$_Tmap_traits@U?$pair@HH@std@@_NU?$less@U?$pair@HH@std@@@2@V?$allocator@U?$pair@$$CBU?$pair@HH@std@@_N@std@@@2@$0A@@std@@@std@@QAEPAU?$_Tree_node@U?$pair@$$CBU?$pair@HH@std@@_N@std@@PAX@2@XZ 00428c10 f   PsyhshTileManager.obj
 0001:00027c40       __unwindfunclet$?InitialiseObjects@SimpleDemo@@UAEHXZ$0 00428c40 f   SimpleDemo.obj
 0001:00027c4f       __ehhandler$?InitialiseObjects@SimpleDemo@@UAEHXZ 00428c4f f   SimpleDemo.obj
 0001:00027c80       __unwindfunclet$??0SimpleShape@@QAE@PAVSimpleDemo@@@Z$0 00428c80 f   SimpleDemo.obj
 0001:00027c88       __ehhandler$??0SimpleShape@@QAE@PAVSimpleDemo@@@Z 00428c88 f   SimpleDemo.obj
 0001:00027cb0       __unwindfunclet$??0SineObject@@QAE@PAVBaseEngine@@@Z$0 00428cb0 f   SineObject.obj
 0001:00027cb8       __ehhandler$??0SineObject@@QAE@PAVBaseEngine@@@Z 00428cb8 f   SineObject.obj
 0001:00027ce0       __unwindfunclet$??0Sprite@@QAE@ABV?$basic_string@DU?$char_traits@D@std@@V?$allocator@D@2@@std@@@Z$0 00428ce0 f   Sprite.obj
 0001:00027ceb       __unwindfunclet$??0Sprite@@QAE@ABV?$basic_string@DU?$char_traits@D@std@@V?$allocator@D@2@@std@@@Z$1 00428ceb f   Sprite.obj
 0001:00027cf9       __unwindfunclet$??0Sprite@@QAE@ABV?$basic_string@DU?$char_traits@D@std@@V?$allocator@D@2@@std@@@Z$2 00428cf9 f   Sprite.obj
 0001:00027d07       __unwindfunclet$??0Sprite@@QAE@ABV?$basic_string@DU?$char_traits@D@std@@V?$allocator@D@2@@std@@@Z$3 00428d07 f   Sprite.obj
 0001:00027d15       __unwindfunclet$??0Sprite@@QAE@ABV?$basic_string@DU?$char_traits@D@std@@V?$allocator@D@2@@std@@@Z$4 00428d15 f   Sprite.obj
 0001:00027d23       __unwindfunclet$??0Sprite@@QAE@ABV?$basic_string@DU?$char_traits@D@std@@V?$allocator@D@2@@std@@@Z$5 00428d23 f   Sprite.obj
 0001:00027d31       __unwindfunclet$??0Sprite@@QAE@ABV?$basic_string@DU?$char_traits@D@std@@V?$allocator@D@2@@std@@@Z$6 00428d31 f   Sprite.obj
 0001:00027d3f       __unwindfunclet$??0Sprite@@QAE@ABV?$basic_string@DU?$char_traits@D@std@@V?$allocator@D@2@@std@@@Z$7 00428d3f f   Sprite.obj
 0001:00027d47       __unwindfunclet$??0Sprite@@QAE@ABV?$basic_string@DU?$char_traits@D@std@@V?$allocator@D@2@@std@@@Z$8 00428d47 f   Sprite.obj
 0001:00027d4f       __unwindfunclet$??0Sprite@@QAE@ABV?$basic_string@DU?$char_traits@D@std@@V?$allocator@D@2@@std@@@Z$9 00428d4f f   Sprite.obj
 0001:00027d57       __unwindfunclet$??0Sprite@@QAE@ABV?$basic_string@DU?$char_traits@D@std@@V?$allocator@D@2@@std@@@Z$10 00428d57 f   Sprite.obj
 0001:00027d5f       __unwindfunclet$??0Sprite@@QAE@ABV?$basic_string@DU?$char_traits@D@std@@V?$allocator@D@2@@std@@@Z$11 00428d5f f   Sprite.obj
 0001:00027d6a       __unwindfunclet$??0Sprite@@QAE@ABV?$basic_string@DU?$char_traits@D@std@@V?$allocator@D@2@@std@@@Z$12 00428d6a f   Sprite.obj
 0001:00027d75       __unwindfunclet$??0Sprite@@QAE@ABV?$basic_string@DU?$char_traits@D@std@@V?$allocator@D@2@@std@@@Z$13 00428d75 f   Sprite.obj
 0001:00027d80       __ehhandler$??0Sprite@@QAE@ABV?$basic_string@DU?$char_traits@D@std@@V?$allocator@D@2@@std@@@Z 00428d80 f   Sprite.obj
 0001:00027de0       __unwindfunclet$??$?HDU?$char_traits@D@std@@V?$allocator@D@1@@std@@YA?AV?$basic_string@DU?$char_traits@D@std@@V?$allocator@D@2@@0@ABV10@QBD@Z$0 00428de0 f   Sprite.obj
 0001:00027de8       __ehhandler$??$?HDU?$char_traits@D@std@@V?$allocator@D@1@@std@@YA?AV?$basic_string@DU?$char_traits@D@std@@V?$allocator@D@2@@0@ABV10@QBD@Z 00428de8 f   Sprite.obj
 0001:00027e20       __unwindfunclet$??0Stage@@QAE@ABV?$basic_string@DU?$char_traits@D@std@@V?$allocator@D@2@@std@@@Z$0 00428e20 f   Stage.obj
 0001:00027e28       __unwindfunclet$??0Stage@@QAE@ABV?$basic_string@DU?$char_traits@D@std@@V?$allocator@D@2@@std@@@Z$1 00428e28 f   Stage.obj
 0001:00027e33       __unwindfunclet$??0Stage@@QAE@ABV?$basic_string@DU?$char_traits@D@std@@V?$allocator@D@2@@std@@@Z$2 00428e33 f   Stage.obj
 0001:00027e3b       __ehhandler$??0Stage@@QAE@ABV?$basic_string@DU?$char_traits@D@std@@V?$allocator@D@2@@std@@@Z 00428e3b f   Stage.obj
 0001:00027e63       __unwindfunclet$?Load@Stage@@QAEIAAVPsyhshEngine@@@Z$4 00428e63 f   Stage.obj
 0001:00027e6b       __unwindfunclet$?Load@Stage@@QAEIAAVPsyhshEngine@@@Z$5 00428e6b f   Stage.obj
 0001:00027e76       __unwindfunclet$?Load@Stage@@QAEIAAVPsyhshEngine@@@Z$6 00428e76 f   Stage.obj
 0001:00027e81       __unwindfunclet$?Load@Stage@@QAEIAAVPsyhshEngine@@@Z$7 00428e81 f   Stage.obj
 0001:00027e8c       __unwindfunclet$?Load@Stage@@QAEIAAVPsyhshEngine@@@Z$8 00428e8c f   Stage.obj
 0001:00027e97       __unwindfunclet$?Load@Stage@@QAEIAAVPsyhshEngine@@@Z$9 00428e97 f   Stage.obj
 0001:00027e9f       __unwindfunclet$?Load@Stage@@QAEIAAVPsyhshEngine@@@Z$10 00428e9f f   Stage.obj
 0001:00027ea7       __unwindfunclet$?Load@Stage@@QAEIAAVPsyhshEngine@@@Z$11 00428ea7 f   Stage.obj
 0001:00027eaf       __unwindfunclet$?Load@Stage@@QAEIAAVPsyhshEngine@@@Z$12 00428eaf f   Stage.obj
 0001:00027eba       __ehhandler$?Load@Stage@@QAEIAAVPsyhshEngine@@@Z 00428eba f   Stage.obj
 0001:00027f20       __unwindfunclet$??$?6U?$char_traits@D@std@@@std@@YAAAV?$basic_ostream@DU?$char_traits@D@std@@@0@AAV10@PBD@Z$2 00428f20 f   Stage.obj
 0001:00027f28       __ehhandler$??$?6U?$char_traits@D@std@@@std@@YAAAV?$basic_ostream@DU?$char_traits@D@std@@@0@AAV10@PBD@Z 00428f28 f   Stage.obj
 0001:00027f50       __ehhandler$??$_Traits_find_first_not_of@U?$char_traits@D@std@@@std@@YAIQBDII0IU?$integral_constant@_N$00@0@@Z 00428f50 f   Stage.obj
 0001:00027f90       __ehhandler$??$_Traits_find_first_of@U?$char_traits@D@std@@@std@@YAIQBDII0IU?$integral_constant@_N$00@0@@Z 00428f90 f   Stage.obj
 0001:00027fd0       __ehhandler$??$_Uninitialized_move_al_unchecked@PAV?$basic_string@DU?$char_traits@D@std@@V?$allocator@D@2@@std@@PAV12@V?$allocator@V?$basic_string@DU?$char_traits@D@std@@V?$allocator@D@2@@std@@@2@@std@@YAPAV?$basic_string@DU?$char_traits@D@std@@V?$allocator@D@2@@0@PAV10@00AAV?$allocator@V?$basic_string@DU?$char_traits@D@std@@V?$allocator@D@2@@std@@@0@U_General_ptr_iterator_tag@0@U_Unused_parameter@0@@Z 00428fd0 f   Stage.obj
 0001:00028000       __unwindfunclet$??$construct@V?$basic_string@DU?$char_traits@D@std@@V?$allocator@D@2@@std@@ABV12@@?$_Default_allocator_traits@V?$allocator@V?$basic_string@DU?$char_traits@D@std@@V?$allocator@D@2@@std@@@std@@@std@@SAXAAV?$allocator@V?$basic_string@DU?$char_traits@D@std@@V?$allocator@D@2@@std@@@1@QAV?$basic_string@DU?$char_traits@D@std@@V?$allocator@D@2@@1@ABV31@@Z$0 00429000 f   Stage.obj
 0001:00028011       __ehhandler$??$construct@V?$basic_string@DU?$char_traits@D@std@@V?$allocator@D@2@@std@@ABV12@@?$_Default_allocator_traits@V?$allocator@V?$basic_string@DU?$char_traits@D@std@@V?$allocator@D@2@@std@@@std@@@std@@SAXAAV?$allocator@V?$basic_string@DU?$char_traits@D@std@@V?$allocator@D@2@@std@@@1@QAV?$basic_string@DU?$char_traits@D@std@@V?$allocator@D@2@@1@ABV31@@Z 00429011 f   Stage.obj
 0001:00028040       __unwindfunclet$??$construct@V?$basic_string@DU?$char_traits@D@std@@V?$allocator@D@2@@std@@ABV12@AAII@?$_Default_allocator_traits@V?$allocator@V?$basic_string@DU?$char_traits@D@std@@V?$allocator@D@2@@std@@@std@@@std@@SAXAAV?$allocator@V?$basic_string@DU?$char_traits@D@std@@V?$allocator@D@2@@std@@@1@QAV?$basic_string@DU?$char_traits@D@std@@V?$allocator@D@2@@1@ABV31@AAI$$QAI@Z$0 00429040 f   Stage.obj
 0001:00028051       __ehhandler$??$construct@V?$basic_string@DU?$char_traits@D@std@@V?$allocator@D@2@@std@@ABV12@AAII@?$_Default_allocator_traits@V?$allocator@V?$basic_string@DU?$char_traits@D@std@@V?$allocator@D@2@@std@@@std@@@std@@SAXAAV?$allocator@V?$basic_string@DU?$char_traits@D@std@@V?$allocator@D@2@@std@@@1@QAV?$basic_string@DU?$char_traits@D@std@@V?$allocator@D@2@@1@ABV31@AAI$$QAI@Z 00429051 f   Stage.obj
 0001:00028080       __ehhandler$??$emplace_back@ABV?$basic_string@DU?$char_traits@D@std@@V?$allocator@D@2@@std@@@?$vector@V?$basic_string@DU?$char_traits@D@std@@V?$allocator@D@2@@std@@V?$allocator@V?$basic_string@DU?$char_traits@D@std@@V?$allocator@D@2@@std@@@2@@std@@QAE@ABV?$basic_string@DU?$char_traits@D@std@@V?$allocator@D@2@@1@@Z 00429080 f   Stage.obj
 0001:000280b0       __ehhandler$??$emplace_back@ABV?$basic_string@DU?$char_traits@D@std@@V?$allocator@D@2@@std@@AAII@?$vector@V?$basic_string@DU?$char_traits@D@std@@V?$allocator@D@2@@std@@V?$allocator@V?$basic_string@DU?$char_traits@D@std@@V?$allocator@D@2@@std@@@2@@std@@QAE@ABV?$basic_string@DU?$char_traits@D@std@@V?$allocator@D@2@@1@AAI$$QAI@Z 004290b0 f   Stage.obj
 0001:000280e0       __unwindfunclet$??$getline@DU?$char_traits@D@std@@V?$allocator@D@2@@std@@YAAAV?$basic_istream@DU?$char_traits@D@std@@@0@$$QAV10@AAV?$basic_string@DU?$char_traits@D@std@@V?$allocator@D@2@@0@D@Z$2 004290e0 f   Stage.obj
 0001:000280e8       __ehhandler$??$getline@DU?$char_traits@D@std@@V?$allocator@D@2@@std@@YAAAV?$basic_istream@DU?$char_traits@D@std@@@0@$$QAV10@AAV?$basic_string@DU?$char_traits@D@std@@V?$allocator@D@2@@0@D@Z 004290e8 f   Stage.obj
 0001:00028110       __unwindfunclet$??0?$basic_string@DU?$char_traits@D@std@@V?$allocator@D@2@@std@@QAE@ABV01@@Z$0 00429110 f   Stage.obj
 0001:00028118       __ehhandler$??0?$basic_string@DU?$char_traits@D@std@@V?$allocator@D@2@@std@@QAE@ABV01@@Z 00429118 f   Stage.obj
 0001:00028140       __unwindfunclet$??0?$basic_string@DU?$char_traits@D@std@@V?$allocator@D@2@@std@@QAE@ABV01@IIABV?$allocator@D@1@@Z$0 00429140 f   Stage.obj
 0001:00028148       __ehhandler$??0?$basic_string@DU?$char_traits@D@std@@V?$allocator@D@2@@std@@QAE@ABV01@IIABV?$allocator@D@1@@Z 00429148 f   Stage.obj
 0001:00028170       __ehhandler$??0?$vector@V?$basic_string@DU?$char_traits@D@std@@V?$allocator@D@2@@std@@V?$allocator@V?$basic_string@DU?$char_traits@D@std@@V?$allocator@D@2@@std@@@2@@std@@QAE@$$QAV01@@Z 00429170 f   Stage.obj
 0001:000281a0       __ehhandler$??0?$vector@V?$basic_string@DU?$char_traits@D@std@@V?$allocator@D@2@@std@@V?$allocator@V?$basic_string@DU?$char_traits@D@std@@V?$allocator@D@2@@std@@@2@@std@@QAE@XZ 004291a0 f   Stage.obj
 0001:000281d0       __unwindfunclet$??0sentry@?$basic_istream@DU?$char_traits@D@std@@@std@@QAE@AAV12@_N@Z$0 004291d0 f   Stage.obj
 0001:000281d8       __ehhandler$??0sentry@?$basic_istream@DU?$char_traits@D@std@@@std@@QAE@AAV12@_N@Z 004291d8 f   Stage.obj
 0001:00028200       __unwindfunclet$??0sentry@?$basic_ostream@DU?$char_traits@D@std@@@std@@QAE@AAV12@@Z$0 00429200 f   Stage.obj
 0001:00028208       __ehhandler$??0sentry@?$basic_ostream@DU?$char_traits@D@std@@@std@@QAE@AAV12@@Z 00429208 f   Stage.obj
 0001:00028230       __ehhandler$??1?$vector@V?$basic_string@DU?$char_traits@D@std@@V?$allocator@D@2@@std@@V?$allocator@V?$basic_string@DU?$char_traits@D@std@@V?$allocator@D@2@@std@@@2@@std@@QAE@XZ 00429230 f   Stage.obj
 0001:00028260       __ehhandler$??1_Sentry_base@?$basic_istream@DU?$char_traits@D@std@@@std@@QAE@XZ 00429260 f   Stage.obj
 0001:00028290       __ehhandler$??1_Sentry_base@?$basic_ostream@DU?$char_traits@D@std@@@std@@QAE@XZ 00429290 f   Stage.obj
 0001:000282c0       __ehhandler$??1sentry@?$basic_ostream@DU?$char_traits@D@std@@@std@@QAE@XZ 004292c0 f   Stage.obj
 0001:000282f0       __ehhandler$?_Move_from@?$vector@V?$basic_string@DU?$char_traits@D@std@@V?$allocator@D@2@@std@@V?$allocator@V?$basic_string@DU?$char_traits@D@std@@V?$allocator@D@2@@std@@@2@@std@@AAEX$$QAV12@U?$integral_constant@_N$00@2@@Z 004292f0 f   Stage.obj
 0001:00028320       __ehhandler$?_Reallocate_exactly@?$vector@V?$basic_string@DU?$char_traits@D@std@@V?$allocator@D@2@@std@@V?$allocator@V?$basic_string@DU?$char_traits@D@std@@V?$allocator@D@2@@std@@@2@@std@@AAEXI@Z 00429320 f   Stage.obj
 0001:00028350       __ehhandler$?find_first_not_of@?$basic_string@DU?$char_traits@D@std@@V?$allocator@D@2@@std@@QBEIABV12@I@Z 00429350 f   Stage.obj
 0001:00028380       __ehhandler$?find_first_of@?$basic_string@DU?$char_traits@D@std@@V?$allocator@D@2@@std@@QBEIABV12@I@Z 00429380 f   Stage.obj
 0001:000283b0       __unwindfunclet$?split_string@utility@@YA?AV?$vector@V?$basic_string@DU?$char_traits@D@std@@V?$allocator@D@2@@std@@V?$allocator@V?$basic_string@DU?$char_traits@D@std@@V?$allocator@D@2@@std@@@2@@std@@ABV?$basic_string@DU?$char_traits@D@std@@V?$allocator@D@2@@3@0@Z$0 004293b0 f   Stage.obj
 0001:000283b8       __ehhandler$?split_string@utility@@YA?AV?$vector@V?$basic_string@DU?$char_traits@D@std@@V?$allocator@D@2@@std@@V?$allocator@V?$basic_string@DU?$char_traits@D@std@@V?$allocator@D@2@@std@@@2@@std@@ABV?$basic_string@DU?$char_traits@D@std@@V?$allocator@D@2@@3@0@Z 004293b8 f   Stage.obj
 0001:000283e0       __unwindfunclet$??0BouncingBall@@QAE@PAVBouncingBallMain@@HHHHPBDHH@Z$0 004293e0 f   BouncingBall.obj
 0001:000283e8       __ehhandler$??0BouncingBall@@QAE@PAVBouncingBallMain@@HHHHPBDHH@Z 004293e8 f   BouncingBall.obj
 0001:00028403       __unwindfunclet$??0BouncingBall1@@QAE@PAVBouncingBallMain@@HHHHPBDHHPAVTileManager@@@Z$0 00429403 f   BouncingBall.obj
 0001:0002840b       __ehhandler$??0BouncingBall1@@QAE@PAVBouncingBallMain@@HHHHPBDHHPAVTileManager@@@Z 0042940b f   BouncingBall.obj
 0001:00028440       __unwindfunclet$?SetupBackgroundBuffer@BouncingBallMain@@UAEXXZ$0 00429440 f   BouncingBallMain.obj
 0001:00028448       __unwindfunclet$?SetupBackgroundBuffer@BouncingBallMain@@UAEXXZ$1 00429448 f   BouncingBallMain.obj
 0001:00028450       __ehhandler$?SetupBackgroundBuffer@BouncingBallMain@@UAEXXZ 00429450 f   BouncingBallMain.obj
 0001:0002846b       __unwindfunclet$?InitialiseObjects@BouncingBallMain@@UAEHXZ$0 0042946b f   BouncingBallMain.obj
 0001:0002847a       __unwindfunclet$?InitialiseObjects@BouncingBallMain@@UAEHXZ$1 0042947a f   BouncingBallMain.obj
 0001:00028489       __unwindfunclet$?InitialiseObjects@BouncingBallMain@@UAEHXZ$2 00429489 f   BouncingBallMain.obj
 0001:00028498       __ehhandler$?InitialiseObjects@BouncingBallMain@@UAEHXZ 00429498 f   BouncingBallMain.obj
 0001:000284d0       __unwindfunclet$??0Demo2Main@@QAE@XZ$0 004294d0 f   Demo2Main.obj
 0001:000284d8       __ehhandler$??0Demo2Main@@QAE@XZ 004294d8 f   Demo2Main.obj
 0001:000284f3       __unwindfunclet$?InitialiseObjects@Demo2Main@@UAEHXZ$0 004294f3 f   Demo2Main.obj
 0001:00028502       __ehhandler$?InitialiseObjects@Demo2Main@@UAEHXZ 00429502 f   Demo2Main.obj
 0001:00028530       __unwindfunclet$??0Demo2Object@@QAE@PAVDemo2Main@@@Z$0 00429530 f   Demo2Object.obj
 0001:00028538       __ehhandler$??0Demo2Object@@QAE@PAVDemo2Main@@@Z 00429538 f   Demo2Object.obj
 0001:00028560       __unwindfunclet$??0Demo3Main@@QAE@XZ$0 00429560 f   Demo3Main.obj
 0001:00028568       __ehhandler$??0Demo3Main@@QAE@XZ 00429568 f   Demo3Main.obj
 0001:00028583       __unwindfunclet$?InitialiseObjects@Demo3Main@@UAEHXZ$0 00429583 f   Demo3Main.obj
 0001:00028592       __unwindfunclet$?InitialiseObjects@Demo3Main@@UAEHXZ$1 00429592 f   Demo3Main.obj
 0001:000285a1       __unwindfunclet$?InitialiseObjects@Demo3Main@@UAEHXZ$2 004295a1 f   Demo3Main.obj
 0001:000285b0       __unwindfunclet$?InitialiseObjects@Demo3Main@@UAEHXZ$3 004295b0 f   Demo3Main.obj
 0001:000285bf       __unwindfunclet$?InitialiseObjects@Demo3Main@@UAEHXZ$4 004295bf f   Demo3Main.obj
 0001:000285ce       __ehhandler$?InitialiseObjects@Demo3Main@@UAEHXZ 004295ce f   Demo3Main.obj
 0001:00028610       __unwindfunclet$??0Demo3Object@@QAE@PAVDemo3Main@@HH@Z$0 00429610 f   Demo3Object.obj
 0001:00028618       __ehhandler$??0Demo3Object@@QAE@PAVDemo3Main@@HH@Z 00429618 f   Demo3Object.obj
 0001:00028640       __unwindfunclet$??0Demo3ObjectFinished@@QAE@PAVDemo3Main@@HH@Z$0 00429640 f   Demo3ObjectFinished.obj
 0001:00028648       __ehhandler$??0Demo3ObjectFinished@@QAE@PAVDemo3Main@@HH@Z 00429648 f   Demo3ObjectFinished.obj
 0001:00028670       __unwindfunclet$??0Demo4Main@@QAE@XZ$0 00429670 f   Demo4Main.obj
 0001:00028678       __ehhandler$??0Demo4Main@@QAE@XZ 00429678 f   Demo4Main.obj
 0001:00028693       __unwindfunclet$?InitialiseObjects@Demo4Main@@UAEHXZ$0 00429693 f   Demo4Main.obj
 0001:000286a2       __unwindfunclet$?InitialiseObjects@Demo4Main@@UAEHXZ$1 004296a2 f   Demo4Main.obj
 0001:000286b1       __unwindfunclet$?InitialiseObjects@Demo4Main@@UAEHXZ$2 004296b1 f   Demo4Main.obj
 0001:000286c0       __unwindfunclet$?InitialiseObjects@Demo4Main@@UAEHXZ$3 004296c0 f   Demo4Main.obj
 0001:000286cf       __unwindfunclet$?InitialiseObjects@Demo4Main@@UAEHXZ$4 004296cf f   Demo4Main.obj
 0001:000286de       __ehhandler$?InitialiseObjects@Demo4Main@@UAEHXZ 004296de f   Demo4Main.obj
 0001:00028720       __unwindfunclet$??0Demo4Object@@QAE@PAVDemo4Main@@HH@Z$0 00429720 f   Demo4Object.obj
 0001:00028728       __ehhandler$??0Demo4Object@@QAE@PAVDemo4Main@@HH@Z 00429728 f   Demo4Object.obj
 0001:0002874b       __ehhandler$??1_Fac_node@std@@QAE@XZ 0042974b f   msvcprt:locale0_implib.obj
 0001:00029876       ??__F_Fac_tidy_reg@std@@YAXXZ 0042a876 f   msvcprt:locale0_implib.obj
 0002:00000104       ?pre_cpp_initializer@@3P6AXXZA 0042c104     MSVCRT:exe_main.obj
 0002:00000208       ?_Fac_tidy_reg$initializer$@std@@3P6AXXZA 0042c208     msvcprt:locale0_implib.obj
 0002:00000514       ?pre_c_initializer@@3P6AHXZA 0042c514     MSVCRT:exe_main.obj
 0002:00000618       ?post_pgo_initializer@@3P6AHXZA 0042c618     MSVCRT:exe_main.obj
 0002:00000c30       $SG73467                   0042cc30     Boss.obj
 0002:00000c40       $SG73605                   0042cc40     Boss.obj
 0002:00000c8c       $SG73507                   0042cc8c     ControlledObject.obj
 0002:00000ce4       $SG73465                   0042cce4     Cursor.obj
 0002:00000cfc       $SG73466                   0042ccfc     Cursor.obj
 0002:00000d84       $SG73533                   0042cd84     HUD.obj
 0002:00000d8c       $SG73534                   0042cd8c     HUD.obj
 0002:00000d98       $SG73535                   0042cd98     HUD.obj
 0002:00000da0       $SG73537                   0042cda0     HUD.obj
 0002:00000da8       $SG73539                   0042cda8     HUD.obj
 0002:00000db4       $SG73541                   0042cdb4     HUD.obj
 0002:00000de4       $SG73963                   0042cde4     mainfunction.obj
 0002:00000dfc       $SG73964                   0042cdfc     mainfunction.obj
 0002:00000e30       $SG88973                   0042ce30     BaseEngine.obj
 0002:00000e48       $SG89540                   0042ce48     BaseEngine.obj
 0002:00000e74       $SG89541                   0042ce74     BaseEngine.obj
 0002:00000e90       $SG89595                   0042ce90     BaseEngine.obj
 0002:00001030       $SG34543                   0042d030     FontManager.obj
 0002:0000104c       $SG34547                   0042d04c     FontManager.obj
 0002:000010b4       $SG73468                   0042d0b4     Missile.obj
 0002:00001104       $SG74059                   0042d104     PsyhshEngine.obj
 0002:00001118       $SG74117                   0042d118     PsyhshEngine.obj
 0002:0000112c       $SG74475                   0042d12c     PsyhshEngine.obj
 0002:00001134       $SG74476                   0042d134     PsyhshEngine.obj
 0002:00001280       $SG70228                   0042d280     PsyhshTileManager.obj
 0002:00001294       $SG70229                   0042d294     PsyhshTileManager.obj
 0002:000012fc       $SG35732                   0042d2fc     SimpleDemo.obj
 0002:00001310       $SG35733                   0042d310     SimpleDemo.obj
 0002:00001328       $SG35738                   0042d328     SimpleDemo.obj
 0002:00001334       $SG35739                   0042d334     SimpleDemo.obj
 0002:000015bc       $SG66667                   0042d5bc     Sprite.obj
 0002:000015c8       $SG66668                   0042d5c8     Sprite.obj
 0002:000015d4       $SG66669                   0042d5d4     Sprite.obj
 0002:000015e0       $SG66670                   0042d5e0     Sprite.obj
 0002:000015f0       $SG66671                   0042d5f0     Sprite.obj
 0002:00001600       $SG66672                   0042d600     Sprite.obj
 0002:00001610       $SG66673                   0042d610     Sprite.obj
 0002:0000162c       $SG74653                   0042d62c     Stage.obj
 0002:0000165c       $SG74654                   0042d65c     Stage.obj
 0002:00001678       $SG74656                   0042d678     Stage.obj
 0002:0000167c       $SG74658                   0042d67c     Stage.obj
 0002:000016b4       $SG74659                   0042d6b4     Stage.obj
 0002:000017b4       $SG35847                   0042d7b4     BouncingBallMain.obj
 0002:000017c0       $SG35858                   0042d7c0     BouncingBallMain.obj
 0002:000017c4       $SG35860                   0042d7c4     BouncingBallMain.obj
 0002:000017c8       $SG35862                   0042d7c8     BouncingBallMain.obj
 0002:000017cc       $SG35866                   0042d7cc     BouncingBallMain.obj
 0002:00001978       $SG35715                   0042d978     Demo2Main.obj
 0002:00001a28       $SG35848                   0042da28     Demo3Main.obj
 0002:00001a38       $SG35849                   0042da38     Demo3Main.obj
 0002:00001a48       $SG35850                   0042da48     Demo3Main.obj
 0002:00001a58       $SG35851                   0042da58     Demo3Main.obj
 0002:00001a68       $SG35852                   0042da68     Demo3Main.obj
 0002:00001a78       $SG35853                   0042da78     Demo3Main.obj
 0002:00001a88       $SG35854                   0042da88     Demo3Main.obj
 0002:00001a98       $SG35855                   0042da98     Demo3Main.obj
 0002:00001aa8       $SG35856                   0042daa8     Demo3Main.obj
 0002:00001ab8       $SG35857                   0042dab8     Demo3Main.obj
 0002:00001ac8       $SG35858                   0042dac8     Demo3Main.obj
 0002:00001ad8       $SG35859                   0042dad8     Demo3Main.obj
 0002:00001adc       $SG35860                   0042dadc     Demo3Main.obj
 0002:00001ae0       $SG35882                   0042dae0     Demo3Main.obj
 0002:00001bd8       $SG35811                   0042dbd8     Demo4Main.obj
 0002:00001be8       $SG35812                   0042dbe8     Demo4Main.obj
 0002:00001bf8       $SG35813                   0042dbf8     Demo4Main.obj
 0002:00001c08       $SG35814                   0042dc08     Demo4Main.obj
 0002:00001c18       $SG35815                   0042dc18     Demo4Main.obj
 0002:00001c28       $SG35816                   0042dc28     Demo4Main.obj
 0002:00001c38       $SG35817                   0042dc38     Demo4Main.obj
 0002:00001c48       $SG35818                   0042dc48     Demo4Main.obj
 0002:00001c58       $SG35819                   0042dc58     Demo4Main.obj
 0002:00001c68       $SG35820                   0042dc68     Demo4Main.obj
 0002:00001c78       $SG35821                   0042dc78     Demo4Main.obj
 0002:00001c88       $SG35822                   0042dc88     Demo4Main.obj
 0002:00001c8c       $SG35823                   0042dc8c     Demo4Main.obj
 0002:00001c90       $SG35850                   0042dc90     Demo4Main.obj
 0002:00001cb4       $SG35852                   0042dcb4     Demo4Main.obj
 0002:00001cbc       $SG35854                   0042dcbc     Demo4Main.obj
 0002:00001e08       _GS_ExceptionPointers      0042de08     MSVCRT:gs_report.obj
 0002:00003a88       __unwindtable$??0?$basic_string@DU?$char_traits@D@std@@V?$allocator@D@2@@std@@QAE@QBD@Z 0042fa88     Boss.obj
 0002:00003a90       __ehfuncinfo$??0?$basic_string@DU?$char_traits@D@std@@V?$allocator@D@2@@std@@QAE@QBD@Z 0042fa90     Boss.obj
 0002:00003ab8       __ehfuncinfo$??1?$basic_string@DU?$char_traits@D@std@@V?$allocator@D@2@@std@@QAE@XZ 0042fab8     Boss.obj
 0002:00003b10       __unwindtable$??0ControlledObject@@QAE@PAVBaseEngine@@@Z 0042fb10     ControlledObject.obj
 0002:00003b18       __ehfuncinfo$?Draw@ControlledObject@@UAEXXZ 0042fb18     ControlledObject.obj
 0002:00003b3c       __ehfuncinfo$??0ControlledObject@@QAE@PAVBaseEngine@@@Z 0042fb3c     ControlledObject.obj
 0002:00003b60       __unwindtable$?Draw@ControlledObject@@UAEXXZ 0042fb60     ControlledObject.obj
 0002:00003b94       __unwindtable$??0?$basic_string@DU?$char_traits@D@std@@V?$allocator@D@2@@std@@QAE@QBDI@Z 0042fb94     ControlledObject.obj
 0002:00003b9c       __ehfuncinfo$??0?$basic_string@DU?$char_traits@D@std@@V?$allocator@D@2@@std@@QAE@QBDI@Z 0042fb9c     ControlledObject.obj
 0002:00003bc4       __ehfuncinfo$??0?$basic_string@DU?$char_traits@D@std@@V?$allocator@D@2@@std@@QAE@$$QAV01@@Z 0042fbc4     ControlledObject.obj
 0002:00003bec       __ehfuncinfo$?_Assign_rv_contents_with_alloc_always_equal@?$basic_string@DU?$char_traits@D@std@@V?$allocator@D@2@@std@@QAEX$$QAV12@U?$integral_constant@_N$00@2@@Z 0042fbec     ControlledObject.obj
 0002:00003c14       __ehfuncinfo$?c_str@?$basic_string@DU?$char_traits@D@std@@V?$allocator@D@2@@std@@QBEPBDXZ 0042fc14     ControlledObject.obj
 0002:00003c3c       __unwindtable$??$?0PADX@?$basic_string@DU?$char_traits@D@std@@V?$allocator@D@2@@std@@QAE@PAD0ABV?$allocator@D@1@@Z 0042fc3c     ControlledObject.obj
 0002:00003c44       __ehfuncinfo$??$?0PADX@?$basic_string@DU?$char_traits@D@std@@V?$allocator@D@2@@std@@QAE@PAD0ABV?$allocator@D@1@@Z 0042fc44     ControlledObject.obj
 0002:00003c6c       __unwindtable$??0Creature@@QAE@PAVBaseEngine@@ABV?$basic_string@DU?$char_traits@D@std@@V?$allocator@D@2@@std@@IABU?$pair@HH@3@IIH_N3@Z 0042fc6c     Creature.obj
 0002:00003c7c       __ehfuncinfo$??0Creature@@QAE@PAVBaseEngine@@ABV?$basic_string@DU?$char_traits@D@std@@V?$allocator@D@2@@std@@IABU?$pair@HH@3@IIH_N3@Z 0042fc7c     Creature.obj
 0002:00003ca8       __unwindtable$??0Cursor@@QAE@PAVBaseEngine@@@Z 0042fca8     Cursor.obj
 0002:00003cc0       __ehfuncinfo$??0Cursor@@QAE@PAVBaseEngine@@@Z 0042fcc0     Cursor.obj
 0002:00003cec       __unwindtable$?Draw@HealthBar@@UAEXXZ 0042fcec     HealthBar.obj
 0002:00003cf4       __unwindtable$??0HealthBar@@QAE@PAVBaseEngine@@@Z 0042fcf4     HealthBar.obj
 0002:00003cfc       __ehfuncinfo$?Draw@HealthBar@@UAEXXZ 0042fcfc     HealthBar.obj
 0002:00003d20       __ehfuncinfo$??0HealthBar@@QAE@PAVBaseEngine@@@Z 0042fd20     HealthBar.obj
 0002:00003d4c       __unwindtable$??0HUD@@QAE@PAVBaseEngine@@@Z 0042fd4c     HUD.obj
 0002:00003d54       __ehfuncinfo$?Draw@HUD@@UAEXXZ 0042fd54     HUD.obj
 0002:00003d78       __ehfuncinfo$??0HUD@@QAE@PAVBaseEngine@@@Z 0042fd78     HUD.obj
 0002:00003d9c       __unwindtable$?Draw@HUD@@UAEXXZ 0042fd9c     HUD.obj
 0002:00003df4       __ehfuncinfo$??1?$_Tree_comp_alloc@V?$_Tmap_traits@U?$pair@HH@std@@_NU?$less@U?$pair@HH@std@@@2@V?$allocator@U?$pair@$$CBU?$pair@HH@std@@_N@std@@@2@$0A@@std@@@std@@QAE@XZ 0042fdf4     mainfunction.obj
 0002:00003e1c       __ehfuncinfo$??1?$_Tree@V?$_Tmap_traits@U?$pair@HH@std@@_NU?$less@U?$pair@HH@std@@@2@V?$allocator@U?$pair@$$CBU?$pair@HH@std@@_N@std@@@2@$0A@@std@@@std@@QAE@XZ 0042fe1c     mainfunction.obj
 0002:00003e44       __ehfuncinfo$?begin@?$_Tree@V?$_Tmap_traits@U?$pair@HH@std@@_NU?$less@U?$pair@HH@std@@@2@V?$allocator@U?$pair@$$CBU?$pair@HH@std@@_N@std@@@2@$0A@@std@@@std@@QAE?AV?$_Tree_iterator@V?$_Tree_val@U?$_Tree_simple_types@U?$pair@$$CBU?$pair@HH@std@@_N@std@@@std@@@std@@@2@XZ 0042fe44     mainfunction.obj
 0002:00003e6c       __ehfuncinfo$?end@?$_Tree@V?$_Tmap_traits@U?$pair@HH@std@@_NU?$less@U?$pair@HH@std@@@2@V?$allocator@U?$pair@$$CBU?$pair@HH@std@@_N@std@@@2@$0A@@std@@@std@@QAE?AV?$_Tree_iterator@V?$_Tree_val@U?$_Tree_simple_types@U?$pair@$$CBU?$pair@HH@std@@_N@std@@@std@@@std@@@2@XZ 0042fe6c     mainfunction.obj
 0002:00003e94       __ehfuncinfo$?clear@?$_Tree@V?$_Tmap_traits@U?$pair@HH@std@@_NU?$less@U?$pair@HH@std@@@2@V?$allocator@U?$pair@$$CBU?$pair@HH@std@@_N@std@@@2@$0A@@std@@@std@@QAEXXZ 0042fe94     mainfunction.obj
 0002:00003ebc       __ehfuncinfo$??1?$vector@PAVCreature@@V?$allocator@PAVCreature@@@std@@@std@@QAE@XZ 0042febc     mainfunction.obj
 0002:00003ee4       __ehfuncinfo$??$_Freenode0@V?$allocator@U?$_Tree_node@U?$pair@$$CBU?$pair@HH@std@@_N@std@@PAX@std@@@std@@@?$_Tree_node@U?$pair@$$CBU?$pair@HH@std@@_N@std@@PAX@std@@SAXAAV?$allocator@U?$_Tree_node@U?$pair@$$CBU?$pair@HH@std@@_N@std@@PAX@std@@@1@PAU01@@Z 0042fee4     mainfunction.obj
 0002:00003f0c       __ehfuncinfo$??1BaseEngine@@UAE@XZ 0042ff0c     BaseEngine.obj
 0002:00003f34       __unwindtable$?GetFont@FontManager@@QAEPAVFont@@PBDH@Z 0042ff34     FontManager.obj
 0002:00003f3c       __ehfuncinfo$?GetFont@FontManager@@QAEPAVFont@@PBDH@Z 0042ff3c     FontManager.obj
 0002:00003f64       __unwindtable$??0Missile@@QAE@PAVBaseEngine@@U?$pair@HH@std@@@Z 0042ff64     Missile.obj
 0002:00003f7c       __ehfuncinfo$??0Missile@@QAE@PAVBaseEngine@@U?$pair@HH@std@@@Z 0042ff7c     Missile.obj
 0002:00003fa8       __unwindtable$??0Player@@QAE@PAVBaseEngine@@ABV?$basic_string@DU?$char_traits@D@std@@V?$allocator@D@2@@std@@II@Z 0042ffa8     Player.obj
 0002:00003fb8       __ehfuncinfo$??0Player@@QAE@PAVBaseEngine@@ABV?$basic_string@DU?$char_traits@D@std@@V?$allocator@D@2@@std@@II@Z 0042ffb8     Player.obj
 0002:00003fe4       __ehfuncinfo$??0?$basic_string@DU?$char_traits@D@std@@V?$allocator@D@2@@std@@QAE@XZ 0042ffe4     PsyhshEngine.obj
 0002:0000400c       __unwindtable$??0?$basic_string@DU?$char_traits@D@std@@V?$allocator@D@2@@std@@QAE@ID@Z 0043000c     PsyhshEngine.obj
 0002:00004014       __ehfuncinfo$??0?$basic_string@DU?$char_traits@D@std@@V?$allocator@D@2@@std@@QAE@ID@Z 00430014     PsyhshEngine.obj
 0002:0000403c       __ehfuncinfo$?begin@?$basic_string@DU?$char_traits@D@std@@V?$allocator@D@2@@std@@QAE?AV?$_String_iterator@V?$_String_val@U?$_Simple_types@D@std@@@std@@@2@XZ 0043003c     PsyhshEngine.obj
 0002:00004064       __ehfuncinfo$??1locale@std@@QAE@XZ 00430064     PsyhshEngine.obj
 0002:0000408c       __unwindtable$?LoadStage@PsyhshEngine@@QAEXABV?$basic_string@DU?$char_traits@D@std@@V?$allocator@D@2@@std@@@Z 0043008c     PsyhshEngine.obj
 0002:00004094       __ehfuncinfo$?NextStage@PsyhshEngine@@QAEXXZ 00430094     PsyhshEngine.obj
 0002:000040b8       __ehfuncinfo$?LoadStage@PsyhshEngine@@QAEXABV?$basic_string@DU?$char_traits@D@std@@V?$allocator@D@2@@std@@@Z 004300b8     PsyhshEngine.obj
 0002:000040dc       __ehfuncinfo$?InitialiseObjects@PsyhshEngine@@UAEHXZ 004300dc     PsyhshEngine.obj
 0002:00004100       __ehfuncinfo$??0PsyhshEngine@@QAE@XZ 00430100     PsyhshEngine.obj
 0002:00004124       __unwindtable$?InitialiseObjects@PsyhshEngine@@UAEHXZ 00430124     PsyhshEngine.obj
 0002:00004154       __unwindtable$??0PsyhshEngine@@QAE@XZ 00430154     PsyhshEngine.obj
 0002:00004194       __unwindtable$?NextStage@PsyhshEngine@@QAEXXZ 00430194     PsyhshEngine.obj
 0002:000041f4       __ehfuncinfo$??0?$vector@PAVCreature@@V?$allocator@PAVCreature@@@std@@@std@@QAE@XZ 004301f4     PsyhshEngine.obj
 0002:0000421c       __unwindtable$??R<lambda_810019f6bc44544abd3921685797a01a>@@QBE_NXZ 0043021c     PsyhshEngine.obj
 0002:00004224       __ehfuncinfo$??R<lambda_810019f6bc44544abd3921685797a01a>@@QBE_NXZ 00430224     PsyhshEngine.obj
 0002:0000424c       __unwindtable$??0?$basic_ifstream@DU?$char_traits@D@std@@@std@@QAE@PBDHH@Z 0043024c     PsyhshEngine.obj
 0002:00004264       __ehfuncinfo$??0?$basic_ifstream@DU?$char_traits@D@std@@@std@@QAE@PBDHH@Z 00430264     PsyhshEngine.obj
 0002:00004290       __unwindtable$??0?$basic_filebuf@DU?$char_traits@D@std@@@std@@QAE@PAU_iobuf@@@Z 00430290     PsyhshEngine.obj
 0002:00004298       __ehfuncinfo$??0?$basic_filebuf@DU?$char_traits@D@std@@@std@@QAE@PAU_iobuf@@@Z 00430298     PsyhshEngine.obj
 0002:000042c0       __ehfuncinfo$??1?$basic_filebuf@DU?$char_traits@D@std@@@std@@UAE@XZ 004302c0     PsyhshEngine.obj
 0002:000042e8       __unwindtable$?open@?$basic_filebuf@DU?$char_traits@D@std@@@std@@QAEPAV12@PBDHH@Z 004302e8     PsyhshEngine.obj
 0002:000042f0       __ehfuncinfo$?open@?$basic_filebuf@DU?$char_traits@D@std@@@std@@QAEPAV12@PBDHH@Z 004302f0     PsyhshEngine.obj
 0002:00004318       __unwindtable$?overflow@?$basic_filebuf@DU?$char_traits@D@std@@@std@@MAEHH@Z 00430318     PsyhshEngine.obj
 0002:00004320       __ehfuncinfo$?overflow@?$basic_filebuf@DU?$char_traits@D@std@@@std@@MAEHH@Z 00430320     PsyhshEngine.obj
 0002:00004348       __unwindtable$?uflow@?$basic_filebuf@DU?$char_traits@D@std@@@std@@MAEHXZ 00430348     PsyhshEngine.obj
 0002:00004350       __ehfuncinfo$?uflow@?$basic_filebuf@DU?$char_traits@D@std@@@std@@MAEHXZ 00430350     PsyhshEngine.obj
 0002:00004378       __unwindtable$?_Endwrite@?$basic_filebuf@DU?$char_traits@D@std@@@std@@IAE_NXZ 00430378     PsyhshEngine.obj
 0002:00004380       __ehfuncinfo$?_Endwrite@?$basic_filebuf@DU?$char_traits@D@std@@@std@@IAE_NXZ 00430380     PsyhshEngine.obj
 0002:000043a8       __catchsym$??$emplace_back@PAVCreature@@@?$vector@PAVCreature@@V?$allocator@PAVCreature@@@std@@@std@@QAE@$$QAPAVCreature@@@Z$2 004303a8     PsyhshEngine.obj
 0002:000043b8       __unwindtable$??$emplace_back@PAVCreature@@@?$vector@PAVCreature@@V?$allocator@PAVCreature@@@std@@@std@@QAE@$$QAPAVCreature@@@Z 004303b8     PsyhshEngine.obj
 0002:000043c8       __tryblocktable$??$emplace_back@PAVCreature@@@?$vector@PAVCreature@@V?$allocator@PAVCreature@@@std@@@std@@QAE@$$QAPAVCreature@@@Z 004303c8     PsyhshEngine.obj
 0002:000043dc       __ehfuncinfo$??$emplace_back@PAVCreature@@@?$vector@PAVCreature@@V?$allocator@PAVCreature@@@std@@@std@@QAE@$$QAPAVCreature@@@Z 004303dc     PsyhshEngine.obj
 0002:00004408       __unwindtable$??$use_facet@V?$codecvt@DDU_Mbstatet@@@std@@@std@@YAABV?$codecvt@DDU_Mbstatet@@@0@ABVlocale@0@@Z 00430408     PsyhshEngine.obj
 0002:00004410       __ehfuncinfo$??$use_facet@V?$codecvt@DDU_Mbstatet@@@std@@@std@@YAABV?$codecvt@DDU_Mbstatet@@@0@ABVlocale@0@@Z 00430410     PsyhshEngine.obj
 0002:0000449c       __catchsym$?SetTreeDead@PsyhshTileManager@@QAEXU?$pair@HH@std@@_N@Z$2 0043049c     PsyhshTileManager.obj
 0002:000044ac       __unwindtable$?SetTreeDead@PsyhshTileManager@@QAEXU?$pair@HH@std@@_N@Z 004304ac     PsyhshTileManager.obj
 0002:000044bc       __catchsym$?IsTreeDead@PsyhshTileManager@@QBE_NU?$pair@HH@std@@@Z$2 004304bc     PsyhshTileManager.obj
 0002:000044cc       __unwindtable$?IsTreeDead@PsyhshTileManager@@QBE_NU?$pair@HH@std@@@Z 004304cc     PsyhshTileManager.obj
 0002:000044dc       __tryblocktable$?SetTreeDead@PsyhshTileManager@@QAEXU?$pair@HH@std@@_N@Z 004304dc     PsyhshTileManager.obj
 0002:000044f0       __tryblocktable$?IsTreeDead@PsyhshTileManager@@QBE_NU?$pair@HH@std@@@Z 004304f0     PsyhshTileManager.obj
 0002:00004504       __unwindtable$??0PsyhshTileManager@@QAE@HH_N@Z 00430504     PsyhshTileManager.obj
 0002:00004524       __ehfuncinfo$?SetTreeDead@PsyhshTileManager@@QAEXU?$pair@HH@std@@_N@Z 00430524     PsyhshTileManager.obj
 0002:00004548       __ehfuncinfo$?IsTreeDead@PsyhshTileManager@@QBE_NU?$pair@HH@std@@@Z 00430548     PsyhshTileManager.obj
 0002:0000456c       __ehfuncinfo$??0PsyhshTileManager@@QAE@HH_N@Z 0043056c     PsyhshTileManager.obj
 0002:000045a8       __catchsym$?_Buyheadnode@?$_Tree_comp_alloc@V?$_Tmap_traits@U?$pair@HH@std@@_NU?$less@U?$pair@HH@std@@@2@V?$allocator@U?$pair@$$CBU?$pair@HH@std@@_N@std@@@2@$0A@@std@@@std@@QAEPAU?$_Tree_node@U?$pair@$$CBU?$pair@HH@std@@_N@std@@PAX@2@XZ$2 004305a8     PsyhshTileManager.obj
 0002:000045b8       __unwindtable$?_Buyheadnode@?$_Tree_comp_alloc@V?$_Tmap_traits@U?$pair@HH@std@@_NU?$less@U?$pair@HH@std@@@2@V?$allocator@U?$pair@$$CBU?$pair@HH@std@@_N@std@@@2@$0A@@std@@@std@@QAEPAU?$_Tree_node@U?$pair@$$CBU?$pair@HH@std@@_N@std@@PAX@2@XZ 004305b8     PsyhshTileManager.obj
 0002:000045c8       __tryblocktable$?_Buyheadnode@?$_Tree_comp_alloc@V?$_Tmap_traits@U?$pair@HH@std@@_NU?$less@U?$pair@HH@std@@@2@V?$allocator@U?$pair@$$CBU?$pair@HH@std@@_N@std@@@2@$0A@@std@@@std@@QAEPAU?$_Tree_node@U?$pair@$$CBU?$pair@HH@std@@_N@std@@PAX@2@XZ 004305c8     PsyhshTileManager.obj
 0002:000045dc       __ehfuncinfo$?_Buyheadnode@?$_Tree_comp_alloc@V?$_Tmap_traits@U?$pair@HH@std@@_NU?$less@U?$pair@HH@std@@@2@V?$allocator@U?$pair@$$CBU?$pair@HH@std@@_N@std@@@2@$0A@@std@@@std@@QAEPAU?$_Tree_node@U?$pair@$$CBU?$pair@HH@std@@_N@std@@PAX@2@XZ 004305dc     PsyhshTileManager.obj
 0002:00004608       __catchsym$?_Buynode0@?$_Tree_comp_alloc@V?$_Tmap_traits@U?$pair@HH@std@@_NU?$less@U?$pair@HH@std@@@2@V?$allocator@U?$pair@$$CBU?$pair@HH@std@@_N@std@@@2@$0A@@std@@@std@@QAEPAU?$_Tree_node@U?$pair@$$CBU?$pair@HH@std@@_N@std@@PAX@2@XZ$2 00430608     PsyhshTileManager.obj
 0002:00004618       __unwindtable$?_Buynode0@?$_Tree_comp_alloc@V?$_Tmap_traits@U?$pair@HH@std@@_NU?$less@U?$pair@HH@std@@@2@V?$allocator@U?$pair@$$CBU?$pair@HH@std@@_N@std@@@2@$0A@@std@@@std@@QAEPAU?$_Tree_node@U?$pair@$$CBU?$pair@HH@std@@_N@std@@PAX@2@XZ 00430618     PsyhshTileManager.obj
 0002:00004628       __tryblocktable$?_Buynode0@?$_Tree_comp_alloc@V?$_Tmap_traits@U?$pair@HH@std@@_NU?$less@U?$pair@HH@std@@@2@V?$allocator@U?$pair@$$CBU?$pair@HH@std@@_N@std@@@2@$0A@@std@@@std@@QAEPAU?$_Tree_node@U?$pair@$$CBU?$pair@HH@std@@_N@std@@PAX@2@XZ 00430628     PsyhshTileManager.obj
 0002:0000463c       __ehfuncinfo$?_Buynode0@?$_Tree_comp_alloc@V?$_Tmap_traits@U?$pair@HH@std@@_NU?$less@U?$pair@HH@std@@@2@V?$allocator@U?$pair@$$CBU?$pair@HH@std@@_N@std@@@2@$0A@@std@@@std@@QAEPAU?$_Tree_node@U?$pair@$$CBU?$pair@HH@std@@_N@std@@PAX@2@XZ 0043063c     PsyhshTileManager.obj
 0002:00004668       __catchsym$??$_Insert_nohint@U?$pair@$$CBU?$pair@HH@std@@_N@std@@U_Not_a_node_tag@2@@?$_Tree@V?$_Tmap_traits@U?$pair@HH@std@@_NU?$less@U?$pair@HH@std@@@2@V?$allocator@U?$pair@$$CBU?$pair@HH@std@@_N@std@@@2@$0A@@std@@@std@@IAE?AU?$pair@V?$_Tree_iterator@V?$_Tree_val@U?$_Tree_simple_types@U?$pair@$$CBU?$pair@HH@std@@_N@std@@@std@@@std@@@std@@_N@1@_N$$QAU?$pair@$$CBU?$pair@HH@std@@_N@1@U_Not_a_node_tag@1@@Z$2 00430668     PsyhshTileManager.obj
 0002:00004678       __unwindtable$??$_Insert_nohint@U?$pair@$$CBU?$pair@HH@std@@_N@std@@U_Not_a_node_tag@2@@?$_Tree@V?$_Tmap_traits@U?$pair@HH@std@@_NU?$less@U?$pair@HH@std@@@2@V?$allocator@U?$pair@$$CBU?$pair@HH@std@@_N@std@@@2@$0A@@std@@@std@@IAE?AU?$pair@V?$_Tree_iterator@V?$_Tree_val@U?$_Tree_simple_types@U?$pair@$$CBU?$pair@HH@std@@_N@std@@@std@@@std@@@std@@_N@1@_N$$QAU?$pair@$$CBU?$pair@HH@std@@_N@1@U_Not_a_node_tag@1@@Z 00430678     PsyhshTileManager.obj
 0002:00004688       __tryblocktable$??$_Insert_nohint@U?$pair@$$CBU?$pair@HH@std@@_N@std@@U_Not_a_node_tag@2@@?$_Tree@V?$_Tmap_traits@U?$pair@HH@std@@_NU?$less@U?$pair@HH@std@@@2@V?$allocator@U?$pair@$$CBU?$pair@HH@std@@_N@std@@@2@$0A@@std@@@std@@IAE?AU?$pair@V?$_Tree_iterator@V?$_Tree_val@U?$_Tree_simple_types@U?$pair@$$CBU?$pair@HH@std@@_N@std@@@std@@@std@@@std@@_N@1@_N$$QAU?$pair@$$CBU?$pair@HH@std@@_N@1@U_Not_a_node_tag@1@@Z 00430688     PsyhshTileManager.obj
 0002:0000469c       __ehfuncinfo$??$_Insert_nohint@U?$pair@$$CBU?$pair@HH@std@@_N@std@@U_Not_a_node_tag@2@@?$_Tree@V?$_Tmap_traits@U?$pair@HH@std@@_NU?$less@U?$pair@HH@std@@@2@V?$allocator@U?$pair@$$CBU?$pair@HH@std@@_N@std@@@2@$0A@@std@@@std@@IAE?AU?$pair@V?$_Tree_iterator@V?$_Tree_val@U?$_Tree_simple_types@U?$pair@$$CBU?$pair@HH@std@@_N@std@@@std@@@std@@@std@@_N@1@_N$$QAU?$pair@$$CBU?$pair@HH@std@@_N@1@U_Not_a_node_tag@1@@Z 0043069c     PsyhshTileManager.obj
 0002:000046c8       __catchsym$??$_Buynode@U?$pair@$$CBU?$pair@HH@std@@_N@std@@@?$_Tree_comp_alloc@V?$_Tmap_traits@U?$pair@HH@std@@_NU?$less@U?$pair@HH@std@@@2@V?$allocator@U?$pair@$$CBU?$pair@HH@std@@_N@std@@@2@$0A@@std@@@std@@QAEPAU?$_Tree_node@U?$pair@$$CBU?$pair@HH@std@@_N@std@@PAX@1@$$QAU?$pair@$$CBU?$pair@HH@std@@_N@1@@Z$2 004306c8     PsyhshTileManager.obj
 0002:000046d8       __unwindtable$??$_Buynode@U?$pair@$$CBU?$pair@HH@std@@_N@std@@@?$_Tree_comp_alloc@V?$_Tmap_traits@U?$pair@HH@std@@_NU?$less@U?$pair@HH@std@@@2@V?$allocator@U?$pair@$$CBU?$pair@HH@std@@_N@std@@@2@$0A@@std@@@std@@QAEPAU?$_Tree_node@U?$pair@$$CBU?$pair@HH@std@@_N@std@@PAX@1@$$QAU?$pair@$$CBU?$pair@HH@std@@_N@1@@Z 004306d8     PsyhshTileManager.obj
 0002:000046e8       __tryblocktable$??$_Buynode@U?$pair@$$CBU?$pair@HH@std@@_N@std@@@?$_Tree_comp_alloc@V?$_Tmap_traits@U?$pair@HH@std@@_NU?$less@U?$pair@HH@std@@@2@V?$allocator@U?$pair@$$CBU?$pair@HH@std@@_N@std@@@2@$0A@@std@@@std@@QAEPAU?$_Tree_node@U?$pair@$$CBU?$pair@HH@std@@_N@std@@PAX@1@$$QAU?$pair@$$CBU?$pair@HH@std@@_N@1@@Z 004306e8     PsyhshTileManager.obj
 0002:000046fc       __ehfuncinfo$??$_Buynode@U?$pair@$$CBU?$pair@HH@std@@_N@std@@@?$_Tree_comp_alloc@V?$_Tmap_traits@U?$pair@HH@std@@_NU?$less@U?$pair@HH@std@@@2@V?$allocator@U?$pair@$$CBU?$pair@HH@std@@_N@std@@@2@$0A@@std@@@std@@QAEPAU?$_Tree_node@U?$pair@$$CBU?$pair@HH@std@@_N@std@@PAX@1@$$QAU?$pair@$$CBU?$pair@HH@std@@_N@1@@Z 004306fc     PsyhshTileManager.obj
 0002:00004728       __unwindtable$?InitialiseObjects@SimpleDemo@@UAEHXZ 00430728     SimpleDemo.obj
 0002:00004730       __ehfuncinfo$?InitialiseObjects@SimpleDemo@@UAEHXZ 00430730     SimpleDemo.obj
 0002:00004758       __unwindtable$??0SimpleShape@@QAE@PAVSimpleDemo@@@Z 00430758     SimpleDemo.obj
 0002:00004760       __ehfuncinfo$??0SimpleShape@@QAE@PAVSimpleDemo@@@Z 00430760     SimpleDemo.obj
 0002:00004788       __unwindtable$??0SineObject@@QAE@PAVBaseEngine@@@Z 00430788     SineObject.obj
 0002:00004790       __ehfuncinfo$??0SineObject@@QAE@PAVBaseEngine@@@Z 00430790     SineObject.obj
 0002:000047b8       __ehfuncinfo$??0Sprite@@QAE@ABV?$basic_string@DU?$char_traits@D@std@@V?$allocator@D@2@@std@@@Z 004307b8     Sprite.obj
 0002:000047dc       __unwindtable$??0Sprite@@QAE@ABV?$basic_string@DU?$char_traits@D@std@@V?$allocator@D@2@@std@@@Z 004307dc     Sprite.obj
 0002:0000485c       __unwindtable$??$?HDU?$char_traits@D@std@@V?$allocator@D@1@@std@@YA?AV?$basic_string@DU?$char_traits@D@std@@V?$allocator@D@2@@0@ABV10@QBD@Z 0043085c     Sprite.obj
 0002:00004864       __ehfuncinfo$??$?HDU?$char_traits@D@std@@V?$allocator@D@1@@std@@YA?AV?$basic_string@DU?$char_traits@D@std@@V?$allocator@D@2@@0@ABV10@QBD@Z 00430864     Sprite.obj
 0002:0000488c       __unwindtable$??0?$basic_string@DU?$char_traits@D@std@@V?$allocator@D@2@@std@@QAE@ABV01@@Z 0043088c     Stage.obj
 0002:00004894       __ehfuncinfo$??0?$basic_string@DU?$char_traits@D@std@@V?$allocator@D@2@@std@@QAE@ABV01@@Z 00430894     Stage.obj
 0002:000048bc       __unwindtable$??0?$basic_string@DU?$char_traits@D@std@@V?$allocator@D@2@@std@@QAE@ABV01@IIABV?$allocator@D@1@@Z 004308bc     Stage.obj
 0002:000048c4       __ehfuncinfo$??0?$basic_string@DU?$char_traits@D@std@@V?$allocator@D@2@@std@@QAE@ABV01@IIABV?$allocator@D@1@@Z 004308c4     Stage.obj
 0002:000048ec       __ehfuncinfo$?find_first_of@?$basic_string@DU?$char_traits@D@std@@V?$allocator@D@2@@std@@QBEIABV12@I@Z 004308ec     Stage.obj
 0002:00004914       __ehfuncinfo$?find_first_not_of@?$basic_string@DU?$char_traits@D@std@@V?$allocator@D@2@@std@@QBEIABV12@I@Z 00430914     Stage.obj
 0002:0000493c       __unwindtable$?split_string@utility@@YA?AV?$vector@V?$basic_string@DU?$char_traits@D@std@@V?$allocator@D@2@@std@@V?$allocator@V?$basic_string@DU?$char_traits@D@std@@V?$allocator@D@2@@std@@@2@@std@@ABV?$basic_string@DU?$char_traits@D@std@@V?$allocator@D@2@@3@0@Z 0043093c     Stage.obj
 0002:00004944       __ehfuncinfo$?split_string@utility@@YA?AV?$vector@V?$basic_string@DU?$char_traits@D@std@@V?$allocator@D@2@@std@@V?$allocator@V?$basic_string@DU?$char_traits@D@std@@V?$allocator@D@2@@std@@@2@@std@@ABV?$basic_string@DU?$char_traits@D@std@@V?$allocator@D@2@@3@0@Z 00430944     Stage.obj
 0002:0000496c       __ehfuncinfo$??0?$vector@V?$basic_string@DU?$char_traits@D@std@@V?$allocator@D@2@@std@@V?$allocator@V?$basic_string@DU?$char_traits@D@std@@V?$allocator@D@2@@std@@@2@@std@@QAE@XZ 0043096c     Stage.obj
 0002:00004994       __ehfuncinfo$?_Move_from@?$vector@V?$basic_string@DU?$char_traits@D@std@@V?$allocator@D@2@@std@@V?$allocator@V?$basic_string@DU?$char_traits@D@std@@V?$allocator@D@2@@std@@@2@@std@@AAEX$$QAV12@U?$integral_constant@_N$00@2@@Z 00430994     Stage.obj
 0002:000049bc       __ehfuncinfo$??0?$vector@V?$basic_string@DU?$char_traits@D@std@@V?$allocator@D@2@@std@@V?$allocator@V?$basic_string@DU?$char_traits@D@std@@V?$allocator@D@2@@std@@@2@@std@@QAE@$$QAV01@@Z 004309bc     Stage.obj
 0002:000049e4       __ehfuncinfo$??1?$vector@V?$basic_string@DU?$char_traits@D@std@@V?$allocator@D@2@@std@@V?$allocator@V?$basic_string@DU?$char_traits@D@std@@V?$allocator@D@2@@std@@@2@@std@@QAE@XZ 004309e4     Stage.obj
 0002:00004a0c       __catchsym$?_Reallocate_exactly@?$vector@V?$basic_string@DU?$char_traits@D@std@@V?$allocator@D@2@@std@@V?$allocator@V?$basic_string@DU?$char_traits@D@std@@V?$allocator@D@2@@std@@@2@@std@@AAEXI@Z$2 00430a0c     Stage.obj
 0002:00004a1c       __unwindtable$?_Reallocate_exactly@?$vector@V?$basic_string@DU?$char_traits@D@std@@V?$allocator@D@2@@std@@V?$allocator@V?$basic_string@DU?$char_traits@D@std@@V?$allocator@D@2@@std@@@2@@std@@AAEXI@Z 00430a1c     Stage.obj
 0002:00004a2c       __tryblocktable$?_Reallocate_exactly@?$vector@V?$basic_string@DU?$char_traits@D@std@@V?$allocator@D@2@@std@@V?$allocator@V?$basic_string@DU?$char_traits@D@std@@V?$allocator@D@2@@std@@@2@@std@@AAEXI@Z 00430a2c     Stage.obj
 0002:00004a40       __ehfuncinfo$?_Reallocate_exactly@?$vector@V?$basic_string@DU?$char_traits@D@std@@V?$allocator@D@2@@std@@V?$allocator@V?$basic_string@DU?$char_traits@D@std@@V?$allocator@D@2@@std@@@2@@std@@AAEXI@Z 00430a40     Stage.obj
 0002:00004a6c       __catchsym$??$emplace_back@ABV?$basic_string@DU?$char_traits@D@std@@V?$allocator@D@2@@std@@AAII@?$vector@V?$basic_string@DU?$char_traits@D@std@@V?$allocator@D@2@@std@@V?$allocator@V?$basic_string@DU?$char_traits@D@std@@V?$allocator@D@2@@std@@@2@@std@@QAE@ABV?$basic_string@DU?$char_traits@D@std@@V?$allocator@D@2@@1@AAI$$QAI@Z$2 00430a6c     Stage.obj
 0002:00004a7c       __unwindtable$??$emplace_back@ABV?$basic_string@DU?$char_traits@D@std@@V?$allocator@D@2@@std@@AAII@?$vector@V?$basic_string@DU?$char_traits@D@std@@V?$allocator@D@2@@std@@V?$allocator@V?$basic_string@DU?$char_traits@D@std@@V?$allocator@D@2@@std@@@2@@std@@QAE@ABV?$basic_string@DU?$char_traits@D@std@@V?$allocator@D@2@@1@AAI$$QAI@Z 00430a7c     Stage.obj
 0002:00004a8c       __tryblocktable$??$emplace_back@ABV?$basic_string@DU?$char_traits@D@std@@V?$allocator@D@2@@std@@AAII@?$vector@V?$basic_string@DU?$char_traits@D@std@@V?$allocator@D@2@@std@@V?$allocator@V?$basic_string@DU?$char_traits@D@std@@V?$allocator@D@2@@std@@@2@@std@@QAE@ABV?$basic_string@DU?$char_traits@D@std@@V?$allocator@D@2@@1@AAI$$QAI@Z 00430a8c     Stage.obj
 0002:00004aa0       __ehfuncinfo$??$emplace_back@ABV?$basic_string@DU?$char_traits@D@std@@V?$allocator@D@2@@std@@AAII@?$vector@V?$basic_string@DU?$char_traits@D@std@@V?$allocator@D@2@@std@@V?$allocator@V?$basic_string@DU?$char_traits@D@std@@V?$allocator@D@2@@std@@@2@@std@@QAE@ABV?$basic_string@DU?$char_traits@D@std@@V?$allocator@D@2@@1@AAI$$QAI@Z 00430aa0     Stage.obj
 0002:00004acc       __unwindtable$??$construct@V?$basic_string@DU?$char_traits@D@std@@V?$allocator@D@2@@std@@ABV12@AAII@?$_Default_allocator_traits@V?$allocator@V?$basic_string@DU?$char_traits@D@std@@V?$allocator@D@2@@std@@@std@@@std@@SAXAAV?$allocator@V?$basic_string@DU?$char_traits@D@std@@V?$allocator@D@2@@std@@@1@QAV?$basic_string@DU?$char_traits@D@std@@V?$allocator@D@2@@1@ABV31@AAI$$QAI@Z 00430acc     Stage.obj
 0002:00004ad4       __ehfuncinfo$??$construct@V?$basic_string@DU?$char_traits@D@std@@V?$allocator@D@2@@std@@ABV12@AAII@?$_Default_allocator_traits@V?$allocator@V?$basic_string@DU?$char_traits@D@std@@V?$allocator@D@2@@std@@@std@@@std@@SAXAAV?$allocator@V?$basic_string@DU?$char_traits@D@std@@V?$allocator@D@2@@std@@@1@QAV?$basic_string@DU?$char_traits@D@std@@V?$allocator@D@2@@1@ABV31@AAI$$QAI@Z 00430ad4     Stage.obj
 0002:00004afc       __catchsym$?Load@Stage@@QAEIAAVPsyhshEngine@@@Z$14 00430afc     Stage.obj
 0002:00004b0c       __catchsym$?Load@Stage@@QAEIAAVPsyhshEngine@@@Z$13 00430b0c     Stage.obj
 0002:00004b1c       __unwindtable$??0Stage@@QAE@ABV?$basic_string@DU?$char_traits@D@std@@V?$allocator@D@2@@std@@@Z 00430b1c     Stage.obj
 0002:00004b34       __ehfuncinfo$?Load@Stage@@QAEIAAVPsyhshEngine@@@Z 00430b34     Stage.obj
 0002:00004b58       __ehfuncinfo$??0Stage@@QAE@ABV?$basic_string@DU?$char_traits@D@std@@V?$allocator@D@2@@std@@@Z 00430b58     Stage.obj
 0002:00004b7c       __tryblocktable$?Load@Stage@@QAEIAAVPsyhshEngine@@@Z 00430b7c     Stage.obj
 0002:00004ba4       __unwindtable$?Load@Stage@@QAEIAAVPsyhshEngine@@@Z 00430ba4     Stage.obj
 0002:00004c30       __catchsym$??$?6U?$char_traits@D@std@@@std@@YAAAV?$basic_ostream@DU?$char_traits@D@std@@@0@AAV10@PBD@Z$3 00430c30     Stage.obj
 0002:00004c40       __tryblocktable$??$?6U?$char_traits@D@std@@@std@@YAAAV?$basic_ostream@DU?$char_traits@D@std@@@0@AAV10@PBD@Z 00430c40     Stage.obj
 0002:00004c54       __unwindtable$??$?6U?$char_traits@D@std@@@std@@YAAAV?$basic_ostream@DU?$char_traits@D@std@@@0@AAV10@PBD@Z 00430c54     Stage.obj
 0002:00004c6c       __ehfuncinfo$??$?6U?$char_traits@D@std@@@std@@YAAAV?$basic_ostream@DU?$char_traits@D@std@@@0@AAV10@PBD@Z 00430c6c     Stage.obj
 0002:00004c9c       __catchsym$??$emplace_back@ABV?$basic_string@DU?$char_traits@D@std@@V?$allocator@D@2@@std@@@?$vector@V?$basic_string@DU?$char_traits@D@std@@V?$allocator@D@2@@std@@V?$allocator@V?$basic_string@DU?$char_traits@D@std@@V?$allocator@D@2@@std@@@2@@std@@QAE@ABV?$basic_string@DU?$char_traits@D@std@@V?$allocator@D@2@@1@@Z$2 00430c9c     Stage.obj
 0002:00004cac       __unwindtable$??$emplace_back@ABV?$basic_string@DU?$char_traits@D@std@@V?$allocator@D@2@@std@@@?$vector@V?$basic_string@DU?$char_traits@D@std@@V?$allocator@D@2@@std@@V?$allocator@V?$basic_string@DU?$char_traits@D@std@@V?$allocator@D@2@@std@@@2@@std@@QAE@ABV?$basic_string@DU?$char_traits@D@std@@V?$allocator@D@2@@1@@Z 00430cac     Stage.obj
 0002:00004cbc       __tryblocktable$??$emplace_back@ABV?$basic_string@DU?$char_traits@D@std@@V?$allocator@D@2@@std@@@?$vector@V?$basic_string@DU?$char_traits@D@std@@V?$allocator@D@2@@std@@V?$allocator@V?$basic_string@DU?$char_traits@D@std@@V?$allocator@D@2@@std@@@2@@std@@QAE@ABV?$basic_string@DU?$char_traits@D@std@@V?$allocator@D@2@@1@@Z 00430cbc     Stage.obj
 0002:00004cd0       __ehfuncinfo$??$emplace_back@ABV?$basic_string@DU?$char_traits@D@std@@V?$allocator@D@2@@std@@@?$vector@V?$basic_string@DU?$char_traits@D@std@@V?$allocator@D@2@@std@@V?$allocator@V?$basic_string@DU?$char_traits@D@std@@V?$allocator@D@2@@std@@@2@@std@@QAE@ABV?$basic_string@DU?$char_traits@D@std@@V?$allocator@D@2@@1@@Z 00430cd0     Stage.obj
 0002:00004cfc       __unwindtable$??$construct@V?$basic_string@DU?$char_traits@D@std@@V?$allocator@D@2@@std@@ABV12@@?$_Default_allocator_traits@V?$allocator@V?$basic_string@DU?$char_traits@D@std@@V?$allocator@D@2@@std@@@std@@@std@@SAXAAV?$allocator@V?$basic_string@DU?$char_traits@D@std@@V?$allocator@D@2@@std@@@1@QAV?$basic_string@DU?$char_traits@D@std@@V?$allocator@D@2@@1@ABV31@@Z 00430cfc     Stage.obj
 0002:00004d04       __ehfuncinfo$??$construct@V?$basic_string@DU?$char_traits@D@std@@V?$allocator@D@2@@std@@ABV12@@?$_Default_allocator_traits@V?$allocator@V?$basic_string@DU?$char_traits@D@std@@V?$allocator@D@2@@std@@@std@@@std@@SAXAAV?$allocator@V?$basic_string@DU?$char_traits@D@std@@V?$allocator@D@2@@std@@@1@QAV?$basic_string@DU?$char_traits@D@std@@V?$allocator@D@2@@1@ABV31@@Z 00430d04     Stage.obj
 0002:00004d2c       __ehfuncinfo$??$_Traits_find_first_not_of@U?$char_traits@D@std@@@std@@YAIQBDII0IU?$integral_constant@_N$00@0@@Z 00430d2c     Stage.obj
 0002:00004d54       __ehfuncinfo$??$_Traits_find_first_of@U?$char_traits@D@std@@@std@@YAIQBDII0IU?$integral_constant@_N$00@0@@Z 00430d54     Stage.obj
 0002:00004d7c       __ehfuncinfo$??1_Sentry_base@?$basic_ostream@DU?$char_traits@D@std@@@std@@QAE@XZ 00430d7c     Stage.obj
 0002:00004da4       __unwindtable$??0sentry@?$basic_ostream@DU?$char_traits@D@std@@@std@@QAE@AAV12@@Z 00430da4     Stage.obj
 0002:00004dac       __ehfuncinfo$??0sentry@?$basic_ostream@DU?$char_traits@D@std@@@std@@QAE@AAV12@@Z 00430dac     Stage.obj
 0002:00004dd4       __ehfuncinfo$??1sentry@?$basic_ostream@DU?$char_traits@D@std@@@std@@QAE@XZ 00430dd4     Stage.obj
 0002:00004dfc       __catchsym$??$getline@DU?$char_traits@D@std@@V?$allocator@D@2@@std@@YAAAV?$basic_istream@DU?$char_traits@D@std@@@0@$$QAV10@AAV?$basic_string@DU?$char_traits@D@std@@V?$allocator@D@2@@0@D@Z$3 00430dfc     Stage.obj
 0002:00004e0c       __tryblocktable$??$getline@DU?$char_traits@D@std@@V?$allocator@D@2@@std@@YAAAV?$basic_istream@DU?$char_traits@D@std@@@0@$$QAV10@AAV?$basic_string@DU?$char_traits@D@std@@V?$allocator@D@2@@0@D@Z 00430e0c     Stage.obj
 0002:00004e20       __unwindtable$??$getline@DU?$char_traits@D@std@@V?$allocator@D@2@@std@@YAAAV?$basic_istream@DU?$char_traits@D@std@@@0@$$QAV10@AAV?$basic_string@DU?$char_traits@D@std@@V?$allocator@D@2@@0@D@Z 00430e20     Stage.obj
 0002:00004e38       __ehfuncinfo$??$getline@DU?$char_traits@D@std@@V?$allocator@D@2@@std@@YAAAV?$basic_istream@DU?$char_traits@D@std@@@0@$$QAV10@AAV?$basic_string@DU?$char_traits@D@std@@V?$allocator@D@2@@0@D@Z 00430e38     Stage.obj
 0002:00004e68       __catchsym$??$_Uninitialized_move_al_unchecked@PAV?$basic_string@DU?$char_traits@D@std@@V?$allocator@D@2@@std@@PAV12@V?$allocator@V?$basic_string@DU?$char_traits@D@std@@V?$allocator@D@2@@std@@@2@@std@@YAPAV?$basic_string@DU?$char_traits@D@std@@V?$allocator@D@2@@0@PAV10@00AAV?$allocator@V?$basic_string@DU?$char_traits@D@std@@V?$allocator@D@2@@std@@@0@U_General_ptr_iterator_tag@0@U_Unused_parameter@0@@Z$2 00430e68     Stage.obj
 0002:00004e78       __unwindtable$??$_Uninitialized_move_al_unchecked@PAV?$basic_string@DU?$char_traits@D@std@@V?$allocator@D@2@@std@@PAV12@V?$allocator@V?$basic_string@DU?$char_traits@D@std@@V?$allocator@D@2@@std@@@2@@std@@YAPAV?$basic_string@DU?$char_traits@D@std@@V?$allocator@D@2@@0@PAV10@00AAV?$allocator@V?$basic_string@DU?$char_traits@D@std@@V?$allocator@D@2@@std@@@0@U_General_ptr_iterator_tag@0@U_Unused_parameter@0@@Z 00430e78     Stage.obj
 0002:00004e88       __tryblocktable$??$_Uninitialized_move_al_unchecked@PAV?$basic_string@DU?$char_traits@D@std@@V?$allocator@D@2@@std@@PAV12@V?$allocator@V?$basic_string@DU?$char_traits@D@std@@V?$allocator@D@2@@std@@@2@@std@@YAPAV?$basic_string@DU?$char_traits@D@std@@V?$allocator@D@2@@0@PAV10@00AAV?$allocator@V?$basic_string@DU?$char_traits@D@std@@V?$allocator@D@2@@std@@@0@U_General_ptr_iterator_tag@0@U_Unused_parameter@0@@Z 00430e88     Stage.obj
 0002:00004e9c       __ehfuncinfo$??$_Uninitialized_move_al_unchecked@PAV?$basic_string@DU?$char_traits@D@std@@V?$allocator@D@2@@std@@PAV12@V?$allocator@V?$basic_string@DU?$char_traits@D@std@@V?$allocator@D@2@@std@@@2@@std@@YAPAV?$basic_string@DU?$char_traits@D@std@@V?$allocator@D@2@@0@PAV10@00AAV?$allocator@V?$basic_string@DU?$char_traits@D@std@@V?$allocator@D@2@@std@@@0@U_General_ptr_iterator_tag@0@U_Unused_parameter@0@@Z 00430e9c     Stage.obj
 0002:00004ec8       __ehfuncinfo$??1_Sentry_base@?$basic_istream@DU?$char_traits@D@std@@@std@@QAE@XZ 00430ec8     Stage.obj
 0002:00004ef0       __unwindtable$??0sentry@?$basic_istream@DU?$char_traits@D@std@@@std@@QAE@AAV12@_N@Z 00430ef0     Stage.obj
 0002:00004ef8       __ehfuncinfo$??0sentry@?$basic_istream@DU?$char_traits@D@std@@@std@@QAE@AAV12@_N@Z 00430ef8     Stage.obj
 0002:00004f20       __unwindtable$??0BouncingBall1@@QAE@PAVBouncingBallMain@@HHHHPBDHHPAVTileManager@@@Z 00430f20     BouncingBall.obj
 0002:00004f28       __unwindtable$??0BouncingBall@@QAE@PAVBouncingBallMain@@HHHHPBDHH@Z 00430f28     BouncingBall.obj
 0002:00004f30       __ehfuncinfo$??0BouncingBall1@@QAE@PAVBouncingBallMain@@HHHHPBDHHPAVTileManager@@@Z 00430f30     BouncingBall.obj
 0002:00004f54       __ehfuncinfo$??0BouncingBall@@QAE@PAVBouncingBallMain@@HHHHPBDHH@Z 00430f54     BouncingBall.obj
 0002:00004f80       __unwindtable$?SetupBackgroundBuffer@BouncingBallMain@@UAEXXZ 00430f80     BouncingBallMain.obj
 0002:00004f90       __unwindtable$?InitialiseObjects@BouncingBallMain@@UAEHXZ 00430f90     BouncingBallMain.obj
 0002:00004fa8       __ehfuncinfo$?InitialiseObjects@BouncingBallMain@@UAEHXZ 00430fa8     BouncingBallMain.obj
 0002:00004fcc       __ehfuncinfo$?SetupBackgroundBuffer@BouncingBallMain@@UAEXXZ 00430fcc     BouncingBallMain.obj
 0002:00004ffc       __unwindtable$?InitialiseObjects@Demo2Main@@UAEHXZ 00430ffc     Demo2Main.obj
 0002:00005004       __unwindtable$??0Demo2Main@@QAE@XZ 00431004     Demo2Main.obj
 0002:0000500c       __ehfuncinfo$?InitialiseObjects@Demo2Main@@UAEHXZ 0043100c     Demo2Main.obj
 0002:00005030       __ehfuncinfo$??0Demo2Main@@QAE@XZ 00431030     Demo2Main.obj
 0002:0000505c       __unwindtable$??0Demo2Object@@QAE@PAVDemo2Main@@@Z 0043105c     Demo2Object.obj
 0002:00005064       __ehfuncinfo$??0Demo2Object@@QAE@PAVDemo2Main@@@Z 00431064     Demo2Object.obj
 0002:0000508c       __unwindtable$??0Demo3Main@@QAE@XZ 0043108c     Demo3Main.obj
 0002:00005094       __ehfuncinfo$?InitialiseObjects@Demo3Main@@UAEHXZ 00431094     Demo3Main.obj
 0002:000050b8       __ehfuncinfo$??0Demo3Main@@QAE@XZ 004310b8     Demo3Main.obj
 0002:000050dc       __unwindtable$?InitialiseObjects@Demo3Main@@UAEHXZ 004310dc     Demo3Main.obj
 0002:00005110       __unwindtable$??0Demo3Object@@QAE@PAVDemo3Main@@HH@Z 00431110     Demo3Object.obj
 0002:00005118       __ehfuncinfo$??0Demo3Object@@QAE@PAVDemo3Main@@HH@Z 00431118     Demo3Object.obj
 0002:00005140       __unwindtable$??0Demo3ObjectFinished@@QAE@PAVDemo3Main@@HH@Z 00431140     Demo3ObjectFinished.obj
 0002:00005148       __ehfuncinfo$??0Demo3ObjectFinished@@QAE@PAVDemo3Main@@HH@Z 00431148     Demo3ObjectFinished.obj
 0002:00005170       __unwindtable$??0Demo4Main@@QAE@XZ 00431170     Demo4Main.obj
 0002:00005178       __ehfuncinfo$?InitialiseObjects@Demo4Main@@UAEHXZ 00431178     Demo4Main.obj
 0002:0000519c       __ehfuncinfo$??0Demo4Main@@QAE@XZ 0043119c     Demo4Main.obj
 0002:000051c0       __unwindtable$?InitialiseObjects@Demo4Main@@UAEHXZ 004311c0     Demo4Main.obj
 0002:000051f4       __unwindtable$??0Demo4Object@@QAE@PAVDemo4Main@@HH@Z 004311f4     Demo4Object.obj
 0002:000051fc       __ehfuncinfo$??0Demo4Object@@QAE@PAVDemo4Main@@HH@Z 004311fc     Demo4Object.obj
 0002:00005224       __ehfuncinfo$??1_Fac_node@std@@QAE@XZ 00431224     msvcprt:locale0_implib.obj
 0002:00005250       __sehtable$?__scrt_common_main_seh@@YAHXZ 00431250     MSVCRT:exe_main.obj
 0002:00005270       __sehtable$___scrt_is_nonwritable_in_current_image 00431270     MSVCRT:utility.obj
 0002:00005318       __unwindtable$??0Boss@@QAE@PAVBaseEngine@@U?$pair@HH@std@@@Z 00431318     Boss.obj
 0002:00005330       __ehfuncinfo$??0Boss@@QAE@PAVBaseEngine@@U?$pair@HH@std@@@Z 00431330     Boss.obj
 0003:000008cc       ?counter@?1??DoUpdate@SineObject@@UAEXH@Z@4HA 004328cc     SineObject.obj
 0003:000008d0       ?_Fac_head@std@@3PAU_Fac_node@1@A 004328d0     msvcprt:locale0_implib.obj
 0003:000008d4       ?_Fac_tidy_reg@std@@3U_Fac_tidy_reg_t@1@B 004328d4     msvcprt:locale0_implib.obj
 0003:000008e0       ?module_local_atexit_table@@3U_onexit_table_t@@A 004328e0     MSVCRT:utility.obj
 0003:000008ec       ?module_local_at_quick_exit_table@@3U_onexit_table_t@@A 004328ec     MSVCRT:utility.obj
 0003:000008f8       ?module_local_atexit_table_initialized@@3_NA 004328f8     MSVCRT:utility.obj
 0003:000008f9       ?is_initialized_as_dll@@3_NA 004328f9     MSVCRT:utility.obj
 0003:00000920       _GS_ExceptionRecord        00432920     MSVCRT:gs_report.obj
 0003:00000970       _GS_ContextRecord          00432970     MSVCRT:gs_report.obj
 0004:00000eae       .idata$6                   00433eae     SDL2:SDL2.dll
 0004:00000ec4       .idata$6                   00433ec4     SDL2_image:SDL2_image.dll
 0004:00000f24       .idata$6                   00433f24     SDL2_ttf:SDL2_ttf.dll
 0004:00001c1a       .idata$6                   00434c1a     msvcprt:MSVCP140.dll
 0004:00001cfa       .idata$6                   00434cfa     vcruntime:VCRUNTIME140.dll
 0004:000020d0       .idata$6                   004350d0     ucrt:api-ms-win-crt-runtime-l1-1-0.dll
 0004:000020f2       .idata$6                   004350f2     ucrt:api-ms-win-crt-math-l1-1-0.dll
 0004:00002112       .idata$6                   00435112     ucrt:api-ms-win-crt-string-l1-1-0.dll
 0004:00002134       .idata$6                   00435134     ucrt:api-ms-win-crt-utility-l1-1-0.dll
 0004:00002156       .idata$6                   00435156     ucrt:api-ms-win-crt-time-l1-1-0.dll
 0004:00002176       .idata$6                   00435176     ucrt:api-ms-win-crt-stdio-l1-1-0.dll
 0004:00002196       .idata$6                   00435196     ucrt:api-ms-win-crt-filesystem-l1-1-0.dll
 0004:000021bc       .idata$6                   004351bc     ucrt:api-ms-win-crt-convert-l1-1-0.dll
 0004:000021de       .idata$6                   004351de     ucrt:api-ms-win-crt-locale-l1-1-0.dll
 0004:00002200       .idata$6                   00435200     ucrt:api-ms-win-crt-heap-l1-1-0.dll
 0004:00002360       .idata$6                   00435360     kernel32:KERNEL32.dll
 0006:00000170       $R000000                   00437170     * linker generated manifest res *
